;******************************************************************************
;* TI ARM G3 C/C++ Codegen                                            PC v18.12.2.LTS *
;* Date/Time created: Mon Jul 29 14:53:39 2019                                *
;******************************************************************************
	.compiler_opts --abi=eabi --arm_vmrs_si_workaround=off --code_state=16 --diag_wrap=off --embedded_constants=on --endian=little --float_support=FPv4SPD16 --hll_source=on --object_format=elf --silicon_version=7M4 --symdebug:dwarf --symdebug:dwarf_version=3 --unaligned_access=on 
	.thumb

$C$DW$CU	.dwtag  DW_TAG_compile_unit
	.dwattr $C$DW$CU, DW_AT_name("../ST7735.c")
	.dwattr $C$DW$CU, DW_AT_producer("TI TI ARM G3 C/C++ Codegen PC v18.12.2.LTS Copyright (c) 1996-2018 Texas Instruments Incorporated")
	.dwattr $C$DW$CU, DW_AT_TI_version(0x01)
	.dwattr $C$DW$CU, DW_AT_comp_dir("C:\Users\jorda\workspace_v9\ST7735_4C123\Debug")
	.global	StX
	.data
	.align	4
	.elfsym	StX,SYM_SIZE(4)
StX:
	.bits		0,32
			; StX @ 0

$C$DW$1	.dwtag  DW_TAG_variable
	.dwattr $C$DW$1, DW_AT_name("StX")
	.dwattr $C$DW$1, DW_AT_TI_symbol_name("StX")
	.dwattr $C$DW$1, DW_AT_location[DW_OP_addr StX]
	.dwattr $C$DW$1, DW_AT_type(*$C$DW$T$31)
	.dwattr $C$DW$1, DW_AT_external
	.dwattr $C$DW$1, DW_AT_decl_file("../ST7735.c")
	.dwattr $C$DW$1, DW_AT_decl_line(0x62)
	.dwattr $C$DW$1, DW_AT_decl_column(0x0a)

	.global	StY
	.data
	.align	4
	.elfsym	StY,SYM_SIZE(4)
StY:
	.bits		0,32
			; StY @ 0

$C$DW$2	.dwtag  DW_TAG_variable
	.dwattr $C$DW$2, DW_AT_name("StY")
	.dwattr $C$DW$2, DW_AT_TI_symbol_name("StY")
	.dwattr $C$DW$2, DW_AT_location[DW_OP_addr StY]
	.dwattr $C$DW$2, DW_AT_type(*$C$DW$T$31)
	.dwattr $C$DW$2, DW_AT_external
	.dwattr $C$DW$2, DW_AT_decl_file("../ST7735.c")
	.dwattr $C$DW$2, DW_AT_decl_line(0x63)
	.dwattr $C$DW$2, DW_AT_decl_column(0x0a)

	.global	StTextColor
	.data
	.align	2
	.elfsym	StTextColor,SYM_SIZE(2)
StTextColor:
	.bits		0x7ff,16
			; StTextColor @ 0

$C$DW$3	.dwtag  DW_TAG_variable
	.dwattr $C$DW$3, DW_AT_name("StTextColor")
	.dwattr $C$DW$3, DW_AT_TI_symbol_name("StTextColor")
	.dwattr $C$DW$3, DW_AT_location[DW_OP_addr StTextColor]
	.dwattr $C$DW$3, DW_AT_type(*$C$DW$T$46)
	.dwattr $C$DW$3, DW_AT_external
	.dwattr $C$DW$3, DW_AT_decl_file("../ST7735.c")
	.dwattr $C$DW$3, DW_AT_decl_line(0x64)
	.dwattr $C$DW$3, DW_AT_decl_column(0x0a)

	.sect	".const:.string:Font"
	.align	1
	.elfsym	Font,SYM_SIZE(1276)
Font:
	.bits		0,8
			; Font[0] @ 0
	.bits		0,8
			; Font[1] @ 8
	.bits		0,8
			; Font[2] @ 16
	.bits		0,8
			; Font[3] @ 24
	.bits		0,8
			; Font[4] @ 32
	.bits		0x3e,8
			; Font[5] @ 40
	.bits		0x5b,8
			; Font[6] @ 48
	.bits		0x4f,8
			; Font[7] @ 56
	.bits		0x5b,8
			; Font[8] @ 64
	.bits		0x3e,8
			; Font[9] @ 72
	.bits		0x3e,8
			; Font[10] @ 80
	.bits		0x6b,8
			; Font[11] @ 88
	.bits		0x4f,8
			; Font[12] @ 96
	.bits		0x6b,8
			; Font[13] @ 104
	.bits		0x3e,8
			; Font[14] @ 112
	.bits		0x1c,8
			; Font[15] @ 120
	.bits		0x3e,8
			; Font[16] @ 128
	.bits		0x7c,8
			; Font[17] @ 136
	.bits		0x3e,8
			; Font[18] @ 144
	.bits		0x1c,8
			; Font[19] @ 152
	.bits		0x18,8
			; Font[20] @ 160
	.bits		0x3c,8
			; Font[21] @ 168
	.bits		0x7e,8
			; Font[22] @ 176
	.bits		0x3c,8
			; Font[23] @ 184
	.bits		0x18,8
			; Font[24] @ 192
	.bits		0x1c,8
			; Font[25] @ 200
	.bits		0x57,8
			; Font[26] @ 208
	.bits		0x7d,8
			; Font[27] @ 216
	.bits		0x57,8
			; Font[28] @ 224
	.bits		0x1c,8
			; Font[29] @ 232
	.bits		0x1c,8
			; Font[30] @ 240
	.bits		0x5e,8
			; Font[31] @ 248
	.bits		0x7f,8
			; Font[32] @ 256
	.bits		0x5e,8
			; Font[33] @ 264
	.bits		0x1c,8
			; Font[34] @ 272
	.bits		0,8
			; Font[35] @ 280
	.bits		0x18,8
			; Font[36] @ 288
	.bits		0x3c,8
			; Font[37] @ 296
	.bits		0x18,8
			; Font[38] @ 304
	.bits		0,8
			; Font[39] @ 312
	.bits		0xff,8
			; Font[40] @ 320
	.bits		0xe7,8
			; Font[41] @ 328
	.bits		0xc3,8
			; Font[42] @ 336
	.bits		0xe7,8
			; Font[43] @ 344
	.bits		0xff,8
			; Font[44] @ 352
	.bits		0,8
			; Font[45] @ 360
	.bits		0x18,8
			; Font[46] @ 368
	.bits		0x24,8
			; Font[47] @ 376
	.bits		0x18,8
			; Font[48] @ 384
	.bits		0,8
			; Font[49] @ 392
	.bits		0xff,8
			; Font[50] @ 400
	.bits		0xe7,8
			; Font[51] @ 408
	.bits		0xdb,8
			; Font[52] @ 416
	.bits		0xe7,8
			; Font[53] @ 424
	.bits		0xff,8
			; Font[54] @ 432
	.bits		0x30,8
			; Font[55] @ 440
	.bits		0x48,8
			; Font[56] @ 448
	.bits		0x3a,8
			; Font[57] @ 456
	.bits		0x6,8
			; Font[58] @ 464
	.bits		0xe,8
			; Font[59] @ 472
	.bits		0x26,8
			; Font[60] @ 480
	.bits		0x29,8
			; Font[61] @ 488
	.bits		0x79,8
			; Font[62] @ 496
	.bits		0x29,8
			; Font[63] @ 504
	.bits		0x26,8
			; Font[64] @ 512
	.bits		0x40,8
			; Font[65] @ 520
	.bits		0x7f,8
			; Font[66] @ 528
	.bits		0x5,8
			; Font[67] @ 536
	.bits		0x5,8
			; Font[68] @ 544
	.bits		0x7,8
			; Font[69] @ 552
	.bits		0x40,8
			; Font[70] @ 560
	.bits		0x7f,8
			; Font[71] @ 568
	.bits		0x5,8
			; Font[72] @ 576
	.bits		0x25,8
			; Font[73] @ 584
	.bits		0x3f,8
			; Font[74] @ 592
	.bits		0x5a,8
			; Font[75] @ 600
	.bits		0x3c,8
			; Font[76] @ 608
	.bits		0xe7,8
			; Font[77] @ 616
	.bits		0x3c,8
			; Font[78] @ 624
	.bits		0x5a,8
			; Font[79] @ 632
	.bits		0x7f,8
			; Font[80] @ 640
	.bits		0x3e,8
			; Font[81] @ 648
	.bits		0x1c,8
			; Font[82] @ 656
	.bits		0x1c,8
			; Font[83] @ 664
	.bits		0x8,8
			; Font[84] @ 672
	.bits		0x8,8
			; Font[85] @ 680
	.bits		0x1c,8
			; Font[86] @ 688
	.bits		0x1c,8
			; Font[87] @ 696
	.bits		0x3e,8
			; Font[88] @ 704
	.bits		0x7f,8
			; Font[89] @ 712
	.bits		0x14,8
			; Font[90] @ 720
	.bits		0x22,8
			; Font[91] @ 728
	.bits		0x7f,8
			; Font[92] @ 736
	.bits		0x22,8
			; Font[93] @ 744
	.bits		0x14,8
			; Font[94] @ 752
	.bits		0x5f,8
			; Font[95] @ 760
	.bits		0x5f,8
			; Font[96] @ 768
	.bits		0,8
			; Font[97] @ 776
	.bits		0x5f,8
			; Font[98] @ 784
	.bits		0x5f,8
			; Font[99] @ 792
	.bits		0x6,8
			; Font[100] @ 800
	.bits		0x9,8
			; Font[101] @ 808
	.bits		0x7f,8
			; Font[102] @ 816
	.bits		0x1,8
			; Font[103] @ 824
	.bits		0x7f,8
			; Font[104] @ 832
	.bits		0,8
			; Font[105] @ 840
	.bits		0x66,8
			; Font[106] @ 848
	.bits		0x89,8
			; Font[107] @ 856
	.bits		0x95,8
			; Font[108] @ 864
	.bits		0x6a,8
			; Font[109] @ 872
	.bits		0x60,8
			; Font[110] @ 880
	.bits		0x60,8
			; Font[111] @ 888
	.bits		0x60,8
			; Font[112] @ 896
	.bits		0x60,8
			; Font[113] @ 904
	.bits		0x60,8
			; Font[114] @ 912
	.bits		0x94,8
			; Font[115] @ 920
	.bits		0xa2,8
			; Font[116] @ 928
	.bits		0xff,8
			; Font[117] @ 936
	.bits		0xa2,8
			; Font[118] @ 944
	.bits		0x94,8
			; Font[119] @ 952
	.bits		0x8,8
			; Font[120] @ 960
	.bits		0x4,8
			; Font[121] @ 968
	.bits		0x7e,8
			; Font[122] @ 976
	.bits		0x4,8
			; Font[123] @ 984
	.bits		0x8,8
			; Font[124] @ 992
	.bits		0x10,8
			; Font[125] @ 1000
	.bits		0x20,8
			; Font[126] @ 1008
	.bits		0x7e,8
			; Font[127] @ 1016
	.bits		0x20,8
			; Font[128] @ 1024
	.bits		0x10,8
			; Font[129] @ 1032
	.bits		0x8,8
			; Font[130] @ 1040
	.bits		0x8,8
			; Font[131] @ 1048
	.bits		0x2a,8
			; Font[132] @ 1056
	.bits		0x1c,8
			; Font[133] @ 1064
	.bits		0x8,8
			; Font[134] @ 1072
	.bits		0x8,8
			; Font[135] @ 1080
	.bits		0x1c,8
			; Font[136] @ 1088
	.bits		0x2a,8
			; Font[137] @ 1096
	.bits		0x8,8
			; Font[138] @ 1104
	.bits		0x8,8
			; Font[139] @ 1112
	.bits		0x1e,8
			; Font[140] @ 1120
	.bits		0x10,8
			; Font[141] @ 1128
	.bits		0x10,8
			; Font[142] @ 1136
	.bits		0x10,8
			; Font[143] @ 1144
	.bits		0x10,8
			; Font[144] @ 1152
	.bits		0xc,8
			; Font[145] @ 1160
	.bits		0x1e,8
			; Font[146] @ 1168
	.bits		0xc,8
			; Font[147] @ 1176
	.bits		0x1e,8
			; Font[148] @ 1184
	.bits		0xc,8
			; Font[149] @ 1192
	.bits		0x30,8
			; Font[150] @ 1200
	.bits		0x38,8
			; Font[151] @ 1208
	.bits		0x3e,8
			; Font[152] @ 1216
	.bits		0x38,8
			; Font[153] @ 1224
	.bits		0x30,8
			; Font[154] @ 1232
	.bits		0x6,8
			; Font[155] @ 1240
	.bits		0xe,8
			; Font[156] @ 1248
	.bits		0x3e,8
			; Font[157] @ 1256
	.bits		0xe,8
			; Font[158] @ 1264
	.bits		0x6,8
			; Font[159] @ 1272
	.bits		0,8
			; Font[160] @ 1280
	.bits		0,8
			; Font[161] @ 1288
	.bits		0,8
			; Font[162] @ 1296
	.bits		0,8
			; Font[163] @ 1304
	.bits		0,8
			; Font[164] @ 1312
	.bits		0,8
			; Font[165] @ 1320
	.bits		0,8
			; Font[166] @ 1328
	.bits		0x5f,8
			; Font[167] @ 1336
	.bits		0,8
			; Font[168] @ 1344
	.bits		0,8
			; Font[169] @ 1352
	.bits		0,8
			; Font[170] @ 1360
	.bits		0x7,8
			; Font[171] @ 1368
	.bits		0,8
			; Font[172] @ 1376
	.bits		0x7,8
			; Font[173] @ 1384
	.bits		0,8
			; Font[174] @ 1392
	.bits		0x14,8
			; Font[175] @ 1400
	.bits		0x7f,8
			; Font[176] @ 1408
	.bits		0x14,8
			; Font[177] @ 1416
	.bits		0x7f,8
			; Font[178] @ 1424
	.bits		0x14,8
			; Font[179] @ 1432
	.bits		0x24,8
			; Font[180] @ 1440
	.bits		0x2a,8
			; Font[181] @ 1448
	.bits		0x7f,8
			; Font[182] @ 1456
	.bits		0x2a,8
			; Font[183] @ 1464
	.bits		0x12,8
			; Font[184] @ 1472
	.bits		0x23,8
			; Font[185] @ 1480
	.bits		0x13,8
			; Font[186] @ 1488
	.bits		0x8,8
			; Font[187] @ 1496
	.bits		0x64,8
			; Font[188] @ 1504
	.bits		0x62,8
			; Font[189] @ 1512
	.bits		0x36,8
			; Font[190] @ 1520
	.bits		0x49,8
			; Font[191] @ 1528
	.bits		0x56,8
			; Font[192] @ 1536
	.bits		0x20,8
			; Font[193] @ 1544
	.bits		0x50,8
			; Font[194] @ 1552
	.bits		0,8
			; Font[195] @ 1560
	.bits		0x8,8
			; Font[196] @ 1568
	.bits		0x7,8
			; Font[197] @ 1576
	.bits		0x3,8
			; Font[198] @ 1584
	.bits		0,8
			; Font[199] @ 1592
	.bits		0,8
			; Font[200] @ 1600
	.bits		0x1c,8
			; Font[201] @ 1608
	.bits		0x22,8
			; Font[202] @ 1616
	.bits		0x41,8
			; Font[203] @ 1624
	.bits		0,8
			; Font[204] @ 1632
	.bits		0,8
			; Font[205] @ 1640
	.bits		0x41,8
			; Font[206] @ 1648
	.bits		0x22,8
			; Font[207] @ 1656
	.bits		0x1c,8
			; Font[208] @ 1664
	.bits		0,8
			; Font[209] @ 1672
	.bits		0x2a,8
			; Font[210] @ 1680
	.bits		0x1c,8
			; Font[211] @ 1688
	.bits		0x7f,8
			; Font[212] @ 1696
	.bits		0x1c,8
			; Font[213] @ 1704
	.bits		0x2a,8
			; Font[214] @ 1712
	.bits		0x8,8
			; Font[215] @ 1720
	.bits		0x8,8
			; Font[216] @ 1728
	.bits		0x3e,8
			; Font[217] @ 1736
	.bits		0x8,8
			; Font[218] @ 1744
	.bits		0x8,8
			; Font[219] @ 1752
	.bits		0,8
			; Font[220] @ 1760
	.bits		0x80,8
			; Font[221] @ 1768
	.bits		0x70,8
			; Font[222] @ 1776
	.bits		0x30,8
			; Font[223] @ 1784
	.bits		0,8
			; Font[224] @ 1792
	.bits		0x8,8
			; Font[225] @ 1800
	.bits		0x8,8
			; Font[226] @ 1808
	.bits		0x8,8
			; Font[227] @ 1816
	.bits		0x8,8
			; Font[228] @ 1824
	.bits		0x8,8
			; Font[229] @ 1832
	.bits		0,8
			; Font[230] @ 1840
	.bits		0,8
			; Font[231] @ 1848
	.bits		0x60,8
			; Font[232] @ 1856
	.bits		0x60,8
			; Font[233] @ 1864
	.bits		0,8
			; Font[234] @ 1872
	.bits		0x20,8
			; Font[235] @ 1880
	.bits		0x10,8
			; Font[236] @ 1888
	.bits		0x8,8
			; Font[237] @ 1896
	.bits		0x4,8
			; Font[238] @ 1904
	.bits		0x2,8
			; Font[239] @ 1912
	.bits		0x3e,8
			; Font[240] @ 1920
	.bits		0x51,8
			; Font[241] @ 1928
	.bits		0x49,8
			; Font[242] @ 1936
	.bits		0x45,8
			; Font[243] @ 1944
	.bits		0x3e,8
			; Font[244] @ 1952
	.bits		0,8
			; Font[245] @ 1960
	.bits		0x42,8
			; Font[246] @ 1968
	.bits		0x7f,8
			; Font[247] @ 1976
	.bits		0x40,8
			; Font[248] @ 1984
	.bits		0,8
			; Font[249] @ 1992
	.bits		0x72,8
			; Font[250] @ 2000
	.bits		0x49,8
			; Font[251] @ 2008
	.bits		0x49,8
			; Font[252] @ 2016
	.bits		0x49,8
			; Font[253] @ 2024
	.bits		0x46,8
			; Font[254] @ 2032
	.bits		0x21,8
			; Font[255] @ 2040
	.bits		0x41,8
			; Font[256] @ 2048
	.bits		0x49,8
			; Font[257] @ 2056
	.bits		0x4d,8
			; Font[258] @ 2064
	.bits		0x33,8
			; Font[259] @ 2072
	.bits		0x18,8
			; Font[260] @ 2080
	.bits		0x14,8
			; Font[261] @ 2088
	.bits		0x12,8
			; Font[262] @ 2096
	.bits		0x7f,8
			; Font[263] @ 2104
	.bits		0x10,8
			; Font[264] @ 2112
	.bits		0x27,8
			; Font[265] @ 2120
	.bits		0x45,8
			; Font[266] @ 2128
	.bits		0x45,8
			; Font[267] @ 2136
	.bits		0x45,8
			; Font[268] @ 2144
	.bits		0x39,8
			; Font[269] @ 2152
	.bits		0x3c,8
			; Font[270] @ 2160
	.bits		0x4a,8
			; Font[271] @ 2168
	.bits		0x49,8
			; Font[272] @ 2176
	.bits		0x49,8
			; Font[273] @ 2184
	.bits		0x31,8
			; Font[274] @ 2192
	.bits		0x41,8
			; Font[275] @ 2200
	.bits		0x21,8
			; Font[276] @ 2208
	.bits		0x11,8
			; Font[277] @ 2216
	.bits		0x9,8
			; Font[278] @ 2224
	.bits		0x7,8
			; Font[279] @ 2232
	.bits		0x36,8
			; Font[280] @ 2240
	.bits		0x49,8
			; Font[281] @ 2248
	.bits		0x49,8
			; Font[282] @ 2256
	.bits		0x49,8
			; Font[283] @ 2264
	.bits		0x36,8
			; Font[284] @ 2272
	.bits		0x46,8
			; Font[285] @ 2280
	.bits		0x49,8
			; Font[286] @ 2288
	.bits		0x49,8
			; Font[287] @ 2296
	.bits		0x29,8
			; Font[288] @ 2304
	.bits		0x1e,8
			; Font[289] @ 2312
	.bits		0,8
			; Font[290] @ 2320
	.bits		0,8
			; Font[291] @ 2328
	.bits		0x14,8
			; Font[292] @ 2336
	.bits		0,8
			; Font[293] @ 2344
	.bits		0,8
			; Font[294] @ 2352
	.bits		0,8
			; Font[295] @ 2360
	.bits		0x40,8
			; Font[296] @ 2368
	.bits		0x34,8
			; Font[297] @ 2376
	.bits		0,8
			; Font[298] @ 2384
	.bits		0,8
			; Font[299] @ 2392
	.bits		0,8
			; Font[300] @ 2400
	.bits		0x8,8
			; Font[301] @ 2408
	.bits		0x14,8
			; Font[302] @ 2416
	.bits		0x22,8
			; Font[303] @ 2424
	.bits		0x41,8
			; Font[304] @ 2432
	.bits		0x14,8
			; Font[305] @ 2440
	.bits		0x14,8
			; Font[306] @ 2448
	.bits		0x14,8
			; Font[307] @ 2456
	.bits		0x14,8
			; Font[308] @ 2464
	.bits		0x14,8
			; Font[309] @ 2472
	.bits		0,8
			; Font[310] @ 2480
	.bits		0x41,8
			; Font[311] @ 2488
	.bits		0x22,8
			; Font[312] @ 2496
	.bits		0x14,8
			; Font[313] @ 2504
	.bits		0x8,8
			; Font[314] @ 2512
	.bits		0x2,8
			; Font[315] @ 2520
	.bits		0x1,8
			; Font[316] @ 2528
	.bits		0x59,8
			; Font[317] @ 2536
	.bits		0x9,8
			; Font[318] @ 2544
	.bits		0x6,8
			; Font[319] @ 2552
	.bits		0x3e,8
			; Font[320] @ 2560
	.bits		0x41,8
			; Font[321] @ 2568
	.bits		0x5d,8
			; Font[322] @ 2576
	.bits		0x59,8
			; Font[323] @ 2584
	.bits		0x4e,8
			; Font[324] @ 2592
	.bits		0x7c,8
			; Font[325] @ 2600
	.bits		0x12,8
			; Font[326] @ 2608
	.bits		0x11,8
			; Font[327] @ 2616
	.bits		0x12,8
			; Font[328] @ 2624
	.bits		0x7c,8
			; Font[329] @ 2632
	.bits		0x7f,8
			; Font[330] @ 2640
	.bits		0x49,8
			; Font[331] @ 2648
	.bits		0x49,8
			; Font[332] @ 2656
	.bits		0x49,8
			; Font[333] @ 2664
	.bits		0x36,8
			; Font[334] @ 2672
	.bits		0x3e,8
			; Font[335] @ 2680
	.bits		0x41,8
			; Font[336] @ 2688
	.bits		0x41,8
			; Font[337] @ 2696
	.bits		0x41,8
			; Font[338] @ 2704
	.bits		0x22,8
			; Font[339] @ 2712
	.bits		0x7f,8
			; Font[340] @ 2720
	.bits		0x41,8
			; Font[341] @ 2728
	.bits		0x41,8
			; Font[342] @ 2736
	.bits		0x41,8
			; Font[343] @ 2744
	.bits		0x3e,8
			; Font[344] @ 2752
	.bits		0x7f,8
			; Font[345] @ 2760
	.bits		0x49,8
			; Font[346] @ 2768
	.bits		0x49,8
			; Font[347] @ 2776
	.bits		0x49,8
			; Font[348] @ 2784
	.bits		0x41,8
			; Font[349] @ 2792
	.bits		0x7f,8
			; Font[350] @ 2800
	.bits		0x9,8
			; Font[351] @ 2808
	.bits		0x9,8
			; Font[352] @ 2816
	.bits		0x9,8
			; Font[353] @ 2824
	.bits		0x1,8
			; Font[354] @ 2832
	.bits		0x3e,8
			; Font[355] @ 2840
	.bits		0x41,8
			; Font[356] @ 2848
	.bits		0x41,8
			; Font[357] @ 2856
	.bits		0x51,8
			; Font[358] @ 2864
	.bits		0x73,8
			; Font[359] @ 2872
	.bits		0x7f,8
			; Font[360] @ 2880
	.bits		0x8,8
			; Font[361] @ 2888
	.bits		0x8,8
			; Font[362] @ 2896
	.bits		0x8,8
			; Font[363] @ 2904
	.bits		0x7f,8
			; Font[364] @ 2912
	.bits		0,8
			; Font[365] @ 2920
	.bits		0x41,8
			; Font[366] @ 2928
	.bits		0x7f,8
			; Font[367] @ 2936
	.bits		0x41,8
			; Font[368] @ 2944
	.bits		0,8
			; Font[369] @ 2952
	.bits		0x20,8
			; Font[370] @ 2960
	.bits		0x40,8
			; Font[371] @ 2968
	.bits		0x41,8
			; Font[372] @ 2976
	.bits		0x3f,8
			; Font[373] @ 2984
	.bits		0x1,8
			; Font[374] @ 2992
	.bits		0x7f,8
			; Font[375] @ 3000
	.bits		0x8,8
			; Font[376] @ 3008
	.bits		0x14,8
			; Font[377] @ 3016
	.bits		0x22,8
			; Font[378] @ 3024
	.bits		0x41,8
			; Font[379] @ 3032
	.bits		0x7f,8
			; Font[380] @ 3040
	.bits		0x40,8
			; Font[381] @ 3048
	.bits		0x40,8
			; Font[382] @ 3056
	.bits		0x40,8
			; Font[383] @ 3064
	.bits		0x40,8
			; Font[384] @ 3072
	.bits		0x7f,8
			; Font[385] @ 3080
	.bits		0x2,8
			; Font[386] @ 3088
	.bits		0x1c,8
			; Font[387] @ 3096
	.bits		0x2,8
			; Font[388] @ 3104
	.bits		0x7f,8
			; Font[389] @ 3112
	.bits		0x7f,8
			; Font[390] @ 3120
	.bits		0x4,8
			; Font[391] @ 3128
	.bits		0x8,8
			; Font[392] @ 3136
	.bits		0x10,8
			; Font[393] @ 3144
	.bits		0x7f,8
			; Font[394] @ 3152
	.bits		0x3e,8
			; Font[395] @ 3160
	.bits		0x41,8
			; Font[396] @ 3168
	.bits		0x41,8
			; Font[397] @ 3176
	.bits		0x41,8
			; Font[398] @ 3184
	.bits		0x3e,8
			; Font[399] @ 3192
	.bits		0x7f,8
			; Font[400] @ 3200
	.bits		0x9,8
			; Font[401] @ 3208
	.bits		0x9,8
			; Font[402] @ 3216
	.bits		0x9,8
			; Font[403] @ 3224
	.bits		0x6,8
			; Font[404] @ 3232
	.bits		0x3e,8
			; Font[405] @ 3240
	.bits		0x41,8
			; Font[406] @ 3248
	.bits		0x51,8
			; Font[407] @ 3256
	.bits		0x21,8
			; Font[408] @ 3264
	.bits		0x5e,8
			; Font[409] @ 3272
	.bits		0x7f,8
			; Font[410] @ 3280
	.bits		0x9,8
			; Font[411] @ 3288
	.bits		0x19,8
			; Font[412] @ 3296
	.bits		0x29,8
			; Font[413] @ 3304
	.bits		0x46,8
			; Font[414] @ 3312
	.bits		0x26,8
			; Font[415] @ 3320
	.bits		0x49,8
			; Font[416] @ 3328
	.bits		0x49,8
			; Font[417] @ 3336
	.bits		0x49,8
			; Font[418] @ 3344
	.bits		0x32,8
			; Font[419] @ 3352
	.bits		0x3,8
			; Font[420] @ 3360
	.bits		0x1,8
			; Font[421] @ 3368
	.bits		0x7f,8
			; Font[422] @ 3376
	.bits		0x1,8
			; Font[423] @ 3384
	.bits		0x3,8
			; Font[424] @ 3392
	.bits		0x3f,8
			; Font[425] @ 3400
	.bits		0x40,8
			; Font[426] @ 3408
	.bits		0x40,8
			; Font[427] @ 3416
	.bits		0x40,8
			; Font[428] @ 3424
	.bits		0x3f,8
			; Font[429] @ 3432
	.bits		0x1f,8
			; Font[430] @ 3440
	.bits		0x20,8
			; Font[431] @ 3448
	.bits		0x40,8
			; Font[432] @ 3456
	.bits		0x20,8
			; Font[433] @ 3464
	.bits		0x1f,8
			; Font[434] @ 3472
	.bits		0x3f,8
			; Font[435] @ 3480
	.bits		0x40,8
			; Font[436] @ 3488
	.bits		0x38,8
			; Font[437] @ 3496
	.bits		0x40,8
			; Font[438] @ 3504
	.bits		0x3f,8
			; Font[439] @ 3512
	.bits		0x63,8
			; Font[440] @ 3520
	.bits		0x14,8
			; Font[441] @ 3528
	.bits		0x8,8
			; Font[442] @ 3536
	.bits		0x14,8
			; Font[443] @ 3544
	.bits		0x63,8
			; Font[444] @ 3552
	.bits		0x3,8
			; Font[445] @ 3560
	.bits		0x4,8
			; Font[446] @ 3568
	.bits		0x78,8
			; Font[447] @ 3576
	.bits		0x4,8
			; Font[448] @ 3584
	.bits		0x3,8
			; Font[449] @ 3592
	.bits		0x61,8
			; Font[450] @ 3600
	.bits		0x59,8
			; Font[451] @ 3608
	.bits		0x49,8
			; Font[452] @ 3616
	.bits		0x4d,8
			; Font[453] @ 3624
	.bits		0x43,8
			; Font[454] @ 3632
	.bits		0,8
			; Font[455] @ 3640
	.bits		0x7f,8
			; Font[456] @ 3648
	.bits		0x41,8
			; Font[457] @ 3656
	.bits		0x41,8
			; Font[458] @ 3664
	.bits		0x41,8
			; Font[459] @ 3672
	.bits		0x2,8
			; Font[460] @ 3680
	.bits		0x4,8
			; Font[461] @ 3688
	.bits		0x8,8
			; Font[462] @ 3696
	.bits		0x10,8
			; Font[463] @ 3704
	.bits		0x20,8
			; Font[464] @ 3712
	.bits		0,8
			; Font[465] @ 3720
	.bits		0x41,8
			; Font[466] @ 3728
	.bits		0x41,8
			; Font[467] @ 3736
	.bits		0x41,8
			; Font[468] @ 3744
	.bits		0x7f,8
			; Font[469] @ 3752
	.bits		0x4,8
			; Font[470] @ 3760
	.bits		0x2,8
			; Font[471] @ 3768
	.bits		0x1,8
			; Font[472] @ 3776
	.bits		0x2,8
			; Font[473] @ 3784
	.bits		0x4,8
			; Font[474] @ 3792
	.bits		0x40,8
			; Font[475] @ 3800
	.bits		0x40,8
			; Font[476] @ 3808
	.bits		0x40,8
			; Font[477] @ 3816
	.bits		0x40,8
			; Font[478] @ 3824
	.bits		0x40,8
			; Font[479] @ 3832
	.bits		0,8
			; Font[480] @ 3840
	.bits		0x3,8
			; Font[481] @ 3848
	.bits		0x7,8
			; Font[482] @ 3856
	.bits		0x8,8
			; Font[483] @ 3864
	.bits		0,8
			; Font[484] @ 3872
	.bits		0x20,8
			; Font[485] @ 3880
	.bits		0x54,8
			; Font[486] @ 3888
	.bits		0x54,8
			; Font[487] @ 3896
	.bits		0x78,8
			; Font[488] @ 3904
	.bits		0x40,8
			; Font[489] @ 3912
	.bits		0x7f,8
			; Font[490] @ 3920
	.bits		0x28,8
			; Font[491] @ 3928
	.bits		0x44,8
			; Font[492] @ 3936
	.bits		0x44,8
			; Font[493] @ 3944
	.bits		0x38,8
			; Font[494] @ 3952
	.bits		0x38,8
			; Font[495] @ 3960
	.bits		0x44,8
			; Font[496] @ 3968
	.bits		0x44,8
			; Font[497] @ 3976
	.bits		0x44,8
			; Font[498] @ 3984
	.bits		0x28,8
			; Font[499] @ 3992
	.bits		0x38,8
			; Font[500] @ 4000
	.bits		0x44,8
			; Font[501] @ 4008
	.bits		0x44,8
			; Font[502] @ 4016
	.bits		0x28,8
			; Font[503] @ 4024
	.bits		0x7f,8
			; Font[504] @ 4032
	.bits		0x38,8
			; Font[505] @ 4040
	.bits		0x54,8
			; Font[506] @ 4048
	.bits		0x54,8
			; Font[507] @ 4056
	.bits		0x54,8
			; Font[508] @ 4064
	.bits		0x18,8
			; Font[509] @ 4072
	.bits		0,8
			; Font[510] @ 4080
	.bits		0x8,8
			; Font[511] @ 4088
	.bits		0x7e,8
			; Font[512] @ 4096
	.bits		0x9,8
			; Font[513] @ 4104
	.bits		0x2,8
			; Font[514] @ 4112
	.bits		0x18,8
			; Font[515] @ 4120
	.bits		0xa4,8
			; Font[516] @ 4128
	.bits		0xa4,8
			; Font[517] @ 4136
	.bits		0x9c,8
			; Font[518] @ 4144
	.bits		0x78,8
			; Font[519] @ 4152
	.bits		0x7f,8
			; Font[520] @ 4160
	.bits		0x8,8
			; Font[521] @ 4168
	.bits		0x4,8
			; Font[522] @ 4176
	.bits		0x4,8
			; Font[523] @ 4184
	.bits		0x78,8
			; Font[524] @ 4192
	.bits		0,8
			; Font[525] @ 4200
	.bits		0x44,8
			; Font[526] @ 4208
	.bits		0x7d,8
			; Font[527] @ 4216
	.bits		0x40,8
			; Font[528] @ 4224
	.bits		0,8
			; Font[529] @ 4232
	.bits		0x20,8
			; Font[530] @ 4240
	.bits		0x40,8
			; Font[531] @ 4248
	.bits		0x40,8
			; Font[532] @ 4256
	.bits		0x3d,8
			; Font[533] @ 4264
	.bits		0,8
			; Font[534] @ 4272
	.bits		0x7f,8
			; Font[535] @ 4280
	.bits		0x10,8
			; Font[536] @ 4288
	.bits		0x28,8
			; Font[537] @ 4296
	.bits		0x44,8
			; Font[538] @ 4304
	.bits		0,8
			; Font[539] @ 4312
	.bits		0,8
			; Font[540] @ 4320
	.bits		0x41,8
			; Font[541] @ 4328
	.bits		0x7f,8
			; Font[542] @ 4336
	.bits		0x40,8
			; Font[543] @ 4344
	.bits		0,8
			; Font[544] @ 4352
	.bits		0x7c,8
			; Font[545] @ 4360
	.bits		0x4,8
			; Font[546] @ 4368
	.bits		0x78,8
			; Font[547] @ 4376
	.bits		0x4,8
			; Font[548] @ 4384
	.bits		0x78,8
			; Font[549] @ 4392
	.bits		0x7c,8
			; Font[550] @ 4400
	.bits		0x8,8
			; Font[551] @ 4408
	.bits		0x4,8
			; Font[552] @ 4416
	.bits		0x4,8
			; Font[553] @ 4424
	.bits		0x78,8
			; Font[554] @ 4432
	.bits		0x38,8
			; Font[555] @ 4440
	.bits		0x44,8
			; Font[556] @ 4448
	.bits		0x44,8
			; Font[557] @ 4456
	.bits		0x44,8
			; Font[558] @ 4464
	.bits		0x38,8
			; Font[559] @ 4472
	.bits		0xfc,8
			; Font[560] @ 4480
	.bits		0x18,8
			; Font[561] @ 4488
	.bits		0x24,8
			; Font[562] @ 4496
	.bits		0x24,8
			; Font[563] @ 4504
	.bits		0x18,8
			; Font[564] @ 4512
	.bits		0x18,8
			; Font[565] @ 4520
	.bits		0x24,8
			; Font[566] @ 4528
	.bits		0x24,8
			; Font[567] @ 4536
	.bits		0x18,8
			; Font[568] @ 4544
	.bits		0xfc,8
			; Font[569] @ 4552
	.bits		0x7c,8
			; Font[570] @ 4560
	.bits		0x8,8
			; Font[571] @ 4568
	.bits		0x4,8
			; Font[572] @ 4576
	.bits		0x4,8
			; Font[573] @ 4584
	.bits		0x8,8
			; Font[574] @ 4592
	.bits		0x48,8
			; Font[575] @ 4600
	.bits		0x54,8
			; Font[576] @ 4608
	.bits		0x54,8
			; Font[577] @ 4616
	.bits		0x54,8
			; Font[578] @ 4624
	.bits		0x24,8
			; Font[579] @ 4632
	.bits		0x4,8
			; Font[580] @ 4640
	.bits		0x4,8
			; Font[581] @ 4648
	.bits		0x3f,8
			; Font[582] @ 4656
	.bits		0x44,8
			; Font[583] @ 4664
	.bits		0x24,8
			; Font[584] @ 4672
	.bits		0x3c,8
			; Font[585] @ 4680
	.bits		0x40,8
			; Font[586] @ 4688
	.bits		0x40,8
			; Font[587] @ 4696
	.bits		0x20,8
			; Font[588] @ 4704
	.bits		0x7c,8
			; Font[589] @ 4712
	.bits		0x1c,8
			; Font[590] @ 4720
	.bits		0x20,8
			; Font[591] @ 4728
	.bits		0x40,8
			; Font[592] @ 4736
	.bits		0x20,8
			; Font[593] @ 4744
	.bits		0x1c,8
			; Font[594] @ 4752
	.bits		0x3c,8
			; Font[595] @ 4760
	.bits		0x40,8
			; Font[596] @ 4768
	.bits		0x30,8
			; Font[597] @ 4776
	.bits		0x40,8
			; Font[598] @ 4784
	.bits		0x3c,8
			; Font[599] @ 4792
	.bits		0x44,8
			; Font[600] @ 4800
	.bits		0x28,8
			; Font[601] @ 4808
	.bits		0x10,8
			; Font[602] @ 4816
	.bits		0x28,8
			; Font[603] @ 4824
	.bits		0x44,8
			; Font[604] @ 4832
	.bits		0x4c,8
			; Font[605] @ 4840
	.bits		0x90,8
			; Font[606] @ 4848
	.bits		0x90,8
			; Font[607] @ 4856
	.bits		0x90,8
			; Font[608] @ 4864
	.bits		0x7c,8
			; Font[609] @ 4872
	.bits		0x44,8
			; Font[610] @ 4880
	.bits		0x64,8
			; Font[611] @ 4888
	.bits		0x54,8
			; Font[612] @ 4896
	.bits		0x4c,8
			; Font[613] @ 4904
	.bits		0x44,8
			; Font[614] @ 4912
	.bits		0,8
			; Font[615] @ 4920
	.bits		0x8,8
			; Font[616] @ 4928
	.bits		0x36,8
			; Font[617] @ 4936
	.bits		0x41,8
			; Font[618] @ 4944
	.bits		0,8
			; Font[619] @ 4952
	.bits		0,8
			; Font[620] @ 4960
	.bits		0,8
			; Font[621] @ 4968
	.bits		0x77,8
			; Font[622] @ 4976
	.bits		0,8
			; Font[623] @ 4984
	.bits		0,8
			; Font[624] @ 4992
	.bits		0,8
			; Font[625] @ 5000
	.bits		0x41,8
			; Font[626] @ 5008
	.bits		0x36,8
			; Font[627] @ 5016
	.bits		0x8,8
			; Font[628] @ 5024
	.bits		0,8
			; Font[629] @ 5032
	.bits		0x2,8
			; Font[630] @ 5040
	.bits		0x1,8
			; Font[631] @ 5048
	.bits		0x2,8
			; Font[632] @ 5056
	.bits		0x4,8
			; Font[633] @ 5064
	.bits		0x2,8
			; Font[634] @ 5072
	.bits		0x3c,8
			; Font[635] @ 5080
	.bits		0x26,8
			; Font[636] @ 5088
	.bits		0x23,8
			; Font[637] @ 5096
	.bits		0x26,8
			; Font[638] @ 5104
	.bits		0x3c,8
			; Font[639] @ 5112
	.bits		0x1e,8
			; Font[640] @ 5120
	.bits		0xa1,8
			; Font[641] @ 5128
	.bits		0xa1,8
			; Font[642] @ 5136
	.bits		0x61,8
			; Font[643] @ 5144
	.bits		0x12,8
			; Font[644] @ 5152
	.bits		0x3a,8
			; Font[645] @ 5160
	.bits		0x40,8
			; Font[646] @ 5168
	.bits		0x40,8
			; Font[647] @ 5176
	.bits		0x20,8
			; Font[648] @ 5184
	.bits		0x7a,8
			; Font[649] @ 5192
	.bits		0x38,8
			; Font[650] @ 5200
	.bits		0x54,8
			; Font[651] @ 5208
	.bits		0x54,8
			; Font[652] @ 5216
	.bits		0x55,8
			; Font[653] @ 5224
	.bits		0x59,8
			; Font[654] @ 5232
	.bits		0x21,8
			; Font[655] @ 5240
	.bits		0x55,8
			; Font[656] @ 5248
	.bits		0x55,8
			; Font[657] @ 5256
	.bits		0x79,8
			; Font[658] @ 5264
	.bits		0x41,8
			; Font[659] @ 5272
	.bits		0x21,8
			; Font[660] @ 5280
	.bits		0x54,8
			; Font[661] @ 5288
	.bits		0x54,8
			; Font[662] @ 5296
	.bits		0x78,8
			; Font[663] @ 5304
	.bits		0x41,8
			; Font[664] @ 5312
	.bits		0x21,8
			; Font[665] @ 5320
	.bits		0x55,8
			; Font[666] @ 5328
	.bits		0x54,8
			; Font[667] @ 5336
	.bits		0x78,8
			; Font[668] @ 5344
	.bits		0x40,8
			; Font[669] @ 5352
	.bits		0x20,8
			; Font[670] @ 5360
	.bits		0x54,8
			; Font[671] @ 5368
	.bits		0x55,8
			; Font[672] @ 5376
	.bits		0x79,8
			; Font[673] @ 5384
	.bits		0x40,8
			; Font[674] @ 5392
	.bits		0xc,8
			; Font[675] @ 5400
	.bits		0x1e,8
			; Font[676] @ 5408
	.bits		0x52,8
			; Font[677] @ 5416
	.bits		0x72,8
			; Font[678] @ 5424
	.bits		0x12,8
			; Font[679] @ 5432
	.bits		0x39,8
			; Font[680] @ 5440
	.bits		0x55,8
			; Font[681] @ 5448
	.bits		0x55,8
			; Font[682] @ 5456
	.bits		0x55,8
			; Font[683] @ 5464
	.bits		0x59,8
			; Font[684] @ 5472
	.bits		0x39,8
			; Font[685] @ 5480
	.bits		0x54,8
			; Font[686] @ 5488
	.bits		0x54,8
			; Font[687] @ 5496
	.bits		0x54,8
			; Font[688] @ 5504
	.bits		0x59,8
			; Font[689] @ 5512
	.bits		0x39,8
			; Font[690] @ 5520
	.bits		0x55,8
			; Font[691] @ 5528
	.bits		0x54,8
			; Font[692] @ 5536
	.bits		0x54,8
			; Font[693] @ 5544
	.bits		0x58,8
			; Font[694] @ 5552
	.bits		0,8
			; Font[695] @ 5560
	.bits		0,8
			; Font[696] @ 5568
	.bits		0x45,8
			; Font[697] @ 5576
	.bits		0x7c,8
			; Font[698] @ 5584
	.bits		0x41,8
			; Font[699] @ 5592
	.bits		0,8
			; Font[700] @ 5600
	.bits		0x2,8
			; Font[701] @ 5608
	.bits		0x45,8
			; Font[702] @ 5616
	.bits		0x7d,8
			; Font[703] @ 5624
	.bits		0x42,8
			; Font[704] @ 5632
	.bits		0,8
			; Font[705] @ 5640
	.bits		0x1,8
			; Font[706] @ 5648
	.bits		0x45,8
			; Font[707] @ 5656
	.bits		0x7c,8
			; Font[708] @ 5664
	.bits		0x40,8
			; Font[709] @ 5672
	.bits		0xf0,8
			; Font[710] @ 5680
	.bits		0x29,8
			; Font[711] @ 5688
	.bits		0x24,8
			; Font[712] @ 5696
	.bits		0x29,8
			; Font[713] @ 5704
	.bits		0xf0,8
			; Font[714] @ 5712
	.bits		0xf0,8
			; Font[715] @ 5720
	.bits		0x28,8
			; Font[716] @ 5728
	.bits		0x25,8
			; Font[717] @ 5736
	.bits		0x28,8
			; Font[718] @ 5744
	.bits		0xf0,8
			; Font[719] @ 5752
	.bits		0x7c,8
			; Font[720] @ 5760
	.bits		0x54,8
			; Font[721] @ 5768
	.bits		0x55,8
			; Font[722] @ 5776
	.bits		0x45,8
			; Font[723] @ 5784
	.bits		0,8
			; Font[724] @ 5792
	.bits		0x20,8
			; Font[725] @ 5800
	.bits		0x54,8
			; Font[726] @ 5808
	.bits		0x54,8
			; Font[727] @ 5816
	.bits		0x7c,8
			; Font[728] @ 5824
	.bits		0x54,8
			; Font[729] @ 5832
	.bits		0x7c,8
			; Font[730] @ 5840
	.bits		0xa,8
			; Font[731] @ 5848
	.bits		0x9,8
			; Font[732] @ 5856
	.bits		0x7f,8
			; Font[733] @ 5864
	.bits		0x49,8
			; Font[734] @ 5872
	.bits		0x32,8
			; Font[735] @ 5880
	.bits		0x49,8
			; Font[736] @ 5888
	.bits		0x49,8
			; Font[737] @ 5896
	.bits		0x49,8
			; Font[738] @ 5904
	.bits		0x32,8
			; Font[739] @ 5912
	.bits		0x32,8
			; Font[740] @ 5920
	.bits		0x48,8
			; Font[741] @ 5928
	.bits		0x48,8
			; Font[742] @ 5936
	.bits		0x48,8
			; Font[743] @ 5944
	.bits		0x32,8
			; Font[744] @ 5952
	.bits		0x32,8
			; Font[745] @ 5960
	.bits		0x4a,8
			; Font[746] @ 5968
	.bits		0x48,8
			; Font[747] @ 5976
	.bits		0x48,8
			; Font[748] @ 5984
	.bits		0x30,8
			; Font[749] @ 5992
	.bits		0x3a,8
			; Font[750] @ 6000
	.bits		0x41,8
			; Font[751] @ 6008
	.bits		0x41,8
			; Font[752] @ 6016
	.bits		0x21,8
			; Font[753] @ 6024
	.bits		0x7a,8
			; Font[754] @ 6032
	.bits		0x3a,8
			; Font[755] @ 6040
	.bits		0x42,8
			; Font[756] @ 6048
	.bits		0x40,8
			; Font[757] @ 6056
	.bits		0x20,8
			; Font[758] @ 6064
	.bits		0x78,8
			; Font[759] @ 6072
	.bits		0,8
			; Font[760] @ 6080
	.bits		0x9d,8
			; Font[761] @ 6088
	.bits		0xa0,8
			; Font[762] @ 6096
	.bits		0xa0,8
			; Font[763] @ 6104
	.bits		0x7d,8
			; Font[764] @ 6112
	.bits		0x39,8
			; Font[765] @ 6120
	.bits		0x44,8
			; Font[766] @ 6128
	.bits		0x44,8
			; Font[767] @ 6136
	.bits		0x44,8
			; Font[768] @ 6144
	.bits		0x39,8
			; Font[769] @ 6152
	.bits		0x3d,8
			; Font[770] @ 6160
	.bits		0x40,8
			; Font[771] @ 6168
	.bits		0x40,8
			; Font[772] @ 6176
	.bits		0x40,8
			; Font[773] @ 6184
	.bits		0x3d,8
			; Font[774] @ 6192
	.bits		0x3c,8
			; Font[775] @ 6200
	.bits		0x24,8
			; Font[776] @ 6208
	.bits		0xff,8
			; Font[777] @ 6216
	.bits		0x24,8
			; Font[778] @ 6224
	.bits		0x24,8
			; Font[779] @ 6232
	.bits		0x48,8
			; Font[780] @ 6240
	.bits		0x7e,8
			; Font[781] @ 6248
	.bits		0x49,8
			; Font[782] @ 6256
	.bits		0x43,8
			; Font[783] @ 6264
	.bits		0x66,8
			; Font[784] @ 6272
	.bits		0x2b,8
			; Font[785] @ 6280
	.bits		0x2f,8
			; Font[786] @ 6288
	.bits		0xfc,8
			; Font[787] @ 6296
	.bits		0x2f,8
			; Font[788] @ 6304
	.bits		0x2b,8
			; Font[789] @ 6312
	.bits		0xff,8
			; Font[790] @ 6320
	.bits		0x9,8
			; Font[791] @ 6328
	.bits		0x29,8
			; Font[792] @ 6336
	.bits		0xf6,8
			; Font[793] @ 6344
	.bits		0x20,8
			; Font[794] @ 6352
	.bits		0xc0,8
			; Font[795] @ 6360
	.bits		0x88,8
			; Font[796] @ 6368
	.bits		0x7e,8
			; Font[797] @ 6376
	.bits		0x9,8
			; Font[798] @ 6384
	.bits		0x3,8
			; Font[799] @ 6392
	.bits		0x20,8
			; Font[800] @ 6400
	.bits		0x54,8
			; Font[801] @ 6408
	.bits		0x54,8
			; Font[802] @ 6416
	.bits		0x79,8
			; Font[803] @ 6424
	.bits		0x41,8
			; Font[804] @ 6432
	.bits		0,8
			; Font[805] @ 6440
	.bits		0,8
			; Font[806] @ 6448
	.bits		0x44,8
			; Font[807] @ 6456
	.bits		0x7d,8
			; Font[808] @ 6464
	.bits		0x41,8
			; Font[809] @ 6472
	.bits		0x30,8
			; Font[810] @ 6480
	.bits		0x48,8
			; Font[811] @ 6488
	.bits		0x48,8
			; Font[812] @ 6496
	.bits		0x4a,8
			; Font[813] @ 6504
	.bits		0x32,8
			; Font[814] @ 6512
	.bits		0x38,8
			; Font[815] @ 6520
	.bits		0x40,8
			; Font[816] @ 6528
	.bits		0x40,8
			; Font[817] @ 6536
	.bits		0x22,8
			; Font[818] @ 6544
	.bits		0x7a,8
			; Font[819] @ 6552
	.bits		0,8
			; Font[820] @ 6560
	.bits		0x7a,8
			; Font[821] @ 6568
	.bits		0xa,8
			; Font[822] @ 6576
	.bits		0xa,8
			; Font[823] @ 6584
	.bits		0x72,8
			; Font[824] @ 6592
	.bits		0x7d,8
			; Font[825] @ 6600
	.bits		0xd,8
			; Font[826] @ 6608
	.bits		0x19,8
			; Font[827] @ 6616
	.bits		0x31,8
			; Font[828] @ 6624
	.bits		0x7d,8
			; Font[829] @ 6632
	.bits		0x26,8
			; Font[830] @ 6640
	.bits		0x29,8
			; Font[831] @ 6648
	.bits		0x29,8
			; Font[832] @ 6656
	.bits		0x2f,8
			; Font[833] @ 6664
	.bits		0x28,8
			; Font[834] @ 6672
	.bits		0x26,8
			; Font[835] @ 6680
	.bits		0x29,8
			; Font[836] @ 6688
	.bits		0x29,8
			; Font[837] @ 6696
	.bits		0x29,8
			; Font[838] @ 6704
	.bits		0x26,8
			; Font[839] @ 6712
	.bits		0x30,8
			; Font[840] @ 6720
	.bits		0x48,8
			; Font[841] @ 6728
	.bits		0x4d,8
			; Font[842] @ 6736
	.bits		0x40,8
			; Font[843] @ 6744
	.bits		0x20,8
			; Font[844] @ 6752
	.bits		0x38,8
			; Font[845] @ 6760
	.bits		0x8,8
			; Font[846] @ 6768
	.bits		0x8,8
			; Font[847] @ 6776
	.bits		0x8,8
			; Font[848] @ 6784
	.bits		0x8,8
			; Font[849] @ 6792
	.bits		0x8,8
			; Font[850] @ 6800
	.bits		0x8,8
			; Font[851] @ 6808
	.bits		0x8,8
			; Font[852] @ 6816
	.bits		0x8,8
			; Font[853] @ 6824
	.bits		0x38,8
			; Font[854] @ 6832
	.bits		0x2f,8
			; Font[855] @ 6840
	.bits		0x10,8
			; Font[856] @ 6848
	.bits		0xc8,8
			; Font[857] @ 6856
	.bits		0xac,8
			; Font[858] @ 6864
	.bits		0xba,8
			; Font[859] @ 6872
	.bits		0x2f,8
			; Font[860] @ 6880
	.bits		0x10,8
			; Font[861] @ 6888
	.bits		0x28,8
			; Font[862] @ 6896
	.bits		0x34,8
			; Font[863] @ 6904
	.bits		0xfa,8
			; Font[864] @ 6912
	.bits		0,8
			; Font[865] @ 6920
	.bits		0,8
			; Font[866] @ 6928
	.bits		0x7b,8
			; Font[867] @ 6936
	.bits		0,8
			; Font[868] @ 6944
	.bits		0,8
			; Font[869] @ 6952
	.bits		0x8,8
			; Font[870] @ 6960
	.bits		0x14,8
			; Font[871] @ 6968
	.bits		0x2a,8
			; Font[872] @ 6976
	.bits		0x14,8
			; Font[873] @ 6984
	.bits		0x22,8
			; Font[874] @ 6992
	.bits		0x22,8
			; Font[875] @ 7000
	.bits		0x14,8
			; Font[876] @ 7008
	.bits		0x2a,8
			; Font[877] @ 7016
	.bits		0x14,8
			; Font[878] @ 7024
	.bits		0x8,8
			; Font[879] @ 7032
	.bits		0xaa,8
			; Font[880] @ 7040
	.bits		0,8
			; Font[881] @ 7048
	.bits		0x55,8
			; Font[882] @ 7056
	.bits		0,8
			; Font[883] @ 7064
	.bits		0xaa,8
			; Font[884] @ 7072
	.bits		0xaa,8
			; Font[885] @ 7080
	.bits		0x55,8
			; Font[886] @ 7088
	.bits		0xaa,8
			; Font[887] @ 7096
	.bits		0x55,8
			; Font[888] @ 7104
	.bits		0xaa,8
			; Font[889] @ 7112
	.bits		0,8
			; Font[890] @ 7120
	.bits		0,8
			; Font[891] @ 7128
	.bits		0,8
			; Font[892] @ 7136
	.bits		0xff,8
			; Font[893] @ 7144
	.bits		0,8
			; Font[894] @ 7152
	.bits		0x10,8
			; Font[895] @ 7160
	.bits		0x10,8
			; Font[896] @ 7168
	.bits		0x10,8
			; Font[897] @ 7176
	.bits		0xff,8
			; Font[898] @ 7184
	.bits		0,8
			; Font[899] @ 7192
	.bits		0x14,8
			; Font[900] @ 7200
	.bits		0x14,8
			; Font[901] @ 7208
	.bits		0x14,8
			; Font[902] @ 7216
	.bits		0xff,8
			; Font[903] @ 7224
	.bits		0,8
			; Font[904] @ 7232
	.bits		0x10,8
			; Font[905] @ 7240
	.bits		0x10,8
			; Font[906] @ 7248
	.bits		0xff,8
			; Font[907] @ 7256
	.bits		0,8
			; Font[908] @ 7264
	.bits		0xff,8
			; Font[909] @ 7272
	.bits		0x10,8
			; Font[910] @ 7280
	.bits		0x10,8
			; Font[911] @ 7288
	.bits		0xf0,8
			; Font[912] @ 7296
	.bits		0x10,8
			; Font[913] @ 7304
	.bits		0xf0,8
			; Font[914] @ 7312
	.bits		0x14,8
			; Font[915] @ 7320
	.bits		0x14,8
			; Font[916] @ 7328
	.bits		0x14,8
			; Font[917] @ 7336
	.bits		0xfc,8
			; Font[918] @ 7344
	.bits		0,8
			; Font[919] @ 7352
	.bits		0x14,8
			; Font[920] @ 7360
	.bits		0x14,8
			; Font[921] @ 7368
	.bits		0xf7,8
			; Font[922] @ 7376
	.bits		0,8
			; Font[923] @ 7384
	.bits		0xff,8
			; Font[924] @ 7392
	.bits		0,8
			; Font[925] @ 7400
	.bits		0,8
			; Font[926] @ 7408
	.bits		0xff,8
			; Font[927] @ 7416
	.bits		0,8
			; Font[928] @ 7424
	.bits		0xff,8
			; Font[929] @ 7432
	.bits		0x14,8
			; Font[930] @ 7440
	.bits		0x14,8
			; Font[931] @ 7448
	.bits		0xf4,8
			; Font[932] @ 7456
	.bits		0x4,8
			; Font[933] @ 7464
	.bits		0xfc,8
			; Font[934] @ 7472
	.bits		0x14,8
			; Font[935] @ 7480
	.bits		0x14,8
			; Font[936] @ 7488
	.bits		0x17,8
			; Font[937] @ 7496
	.bits		0x10,8
			; Font[938] @ 7504
	.bits		0x1f,8
			; Font[939] @ 7512
	.bits		0x10,8
			; Font[940] @ 7520
	.bits		0x10,8
			; Font[941] @ 7528
	.bits		0x1f,8
			; Font[942] @ 7536
	.bits		0x10,8
			; Font[943] @ 7544
	.bits		0x1f,8
			; Font[944] @ 7552
	.bits		0x14,8
			; Font[945] @ 7560
	.bits		0x14,8
			; Font[946] @ 7568
	.bits		0x14,8
			; Font[947] @ 7576
	.bits		0x1f,8
			; Font[948] @ 7584
	.bits		0,8
			; Font[949] @ 7592
	.bits		0x10,8
			; Font[950] @ 7600
	.bits		0x10,8
			; Font[951] @ 7608
	.bits		0x10,8
			; Font[952] @ 7616
	.bits		0xf0,8
			; Font[953] @ 7624
	.bits		0,8
			; Font[954] @ 7632
	.bits		0,8
			; Font[955] @ 7640
	.bits		0,8
			; Font[956] @ 7648
	.bits		0,8
			; Font[957] @ 7656
	.bits		0x1f,8
			; Font[958] @ 7664
	.bits		0x10,8
			; Font[959] @ 7672
	.bits		0x10,8
			; Font[960] @ 7680
	.bits		0x10,8
			; Font[961] @ 7688
	.bits		0x10,8
			; Font[962] @ 7696
	.bits		0x1f,8
			; Font[963] @ 7704
	.bits		0x10,8
			; Font[964] @ 7712
	.bits		0x10,8
			; Font[965] @ 7720
	.bits		0x10,8
			; Font[966] @ 7728
	.bits		0x10,8
			; Font[967] @ 7736
	.bits		0xf0,8
			; Font[968] @ 7744
	.bits		0x10,8
			; Font[969] @ 7752
	.bits		0,8
			; Font[970] @ 7760
	.bits		0,8
			; Font[971] @ 7768
	.bits		0,8
			; Font[972] @ 7776
	.bits		0xff,8
			; Font[973] @ 7784
	.bits		0x10,8
			; Font[974] @ 7792
	.bits		0x10,8
			; Font[975] @ 7800
	.bits		0x10,8
			; Font[976] @ 7808
	.bits		0x10,8
			; Font[977] @ 7816
	.bits		0x10,8
			; Font[978] @ 7824
	.bits		0x10,8
			; Font[979] @ 7832
	.bits		0x10,8
			; Font[980] @ 7840
	.bits		0x10,8
			; Font[981] @ 7848
	.bits		0x10,8
			; Font[982] @ 7856
	.bits		0xff,8
			; Font[983] @ 7864
	.bits		0x10,8
			; Font[984] @ 7872
	.bits		0,8
			; Font[985] @ 7880
	.bits		0,8
			; Font[986] @ 7888
	.bits		0,8
			; Font[987] @ 7896
	.bits		0xff,8
			; Font[988] @ 7904
	.bits		0x14,8
			; Font[989] @ 7912
	.bits		0,8
			; Font[990] @ 7920
	.bits		0,8
			; Font[991] @ 7928
	.bits		0xff,8
			; Font[992] @ 7936
	.bits		0,8
			; Font[993] @ 7944
	.bits		0xff,8
			; Font[994] @ 7952
	.bits		0,8
			; Font[995] @ 7960
	.bits		0,8
			; Font[996] @ 7968
	.bits		0x1f,8
			; Font[997] @ 7976
	.bits		0x10,8
			; Font[998] @ 7984
	.bits		0x17,8
			; Font[999] @ 7992
	.bits		0,8
			; Font[1000] @ 8000
	.bits		0,8
			; Font[1001] @ 8008
	.bits		0xfc,8
			; Font[1002] @ 8016
	.bits		0x4,8
			; Font[1003] @ 8024
	.bits		0xf4,8
			; Font[1004] @ 8032
	.bits		0x14,8
			; Font[1005] @ 8040
	.bits		0x14,8
			; Font[1006] @ 8048
	.bits		0x17,8
			; Font[1007] @ 8056
	.bits		0x10,8
			; Font[1008] @ 8064
	.bits		0x17,8
			; Font[1009] @ 8072
	.bits		0x14,8
			; Font[1010] @ 8080
	.bits		0x14,8
			; Font[1011] @ 8088
	.bits		0xf4,8
			; Font[1012] @ 8096
	.bits		0x4,8
			; Font[1013] @ 8104
	.bits		0xf4,8
			; Font[1014] @ 8112
	.bits		0,8
			; Font[1015] @ 8120
	.bits		0,8
			; Font[1016] @ 8128
	.bits		0xff,8
			; Font[1017] @ 8136
	.bits		0,8
			; Font[1018] @ 8144
	.bits		0xf7,8
			; Font[1019] @ 8152
	.bits		0x14,8
			; Font[1020] @ 8160
	.bits		0x14,8
			; Font[1021] @ 8168
	.bits		0x14,8
			; Font[1022] @ 8176
	.bits		0x14,8
			; Font[1023] @ 8184
	.bits		0x14,8
			; Font[1024] @ 8192
	.bits		0x14,8
			; Font[1025] @ 8200
	.bits		0x14,8
			; Font[1026] @ 8208
	.bits		0xf7,8
			; Font[1027] @ 8216
	.bits		0,8
			; Font[1028] @ 8224
	.bits		0xf7,8
			; Font[1029] @ 8232
	.bits		0x14,8
			; Font[1030] @ 8240
	.bits		0x14,8
			; Font[1031] @ 8248
	.bits		0x14,8
			; Font[1032] @ 8256
	.bits		0x17,8
			; Font[1033] @ 8264
	.bits		0x14,8
			; Font[1034] @ 8272
	.bits		0x10,8
			; Font[1035] @ 8280
	.bits		0x10,8
			; Font[1036] @ 8288
	.bits		0x1f,8
			; Font[1037] @ 8296
	.bits		0x10,8
			; Font[1038] @ 8304
	.bits		0x1f,8
			; Font[1039] @ 8312
	.bits		0x14,8
			; Font[1040] @ 8320
	.bits		0x14,8
			; Font[1041] @ 8328
	.bits		0x14,8
			; Font[1042] @ 8336
	.bits		0xf4,8
			; Font[1043] @ 8344
	.bits		0x14,8
			; Font[1044] @ 8352
	.bits		0x10,8
			; Font[1045] @ 8360
	.bits		0x10,8
			; Font[1046] @ 8368
	.bits		0xf0,8
			; Font[1047] @ 8376
	.bits		0x10,8
			; Font[1048] @ 8384
	.bits		0xf0,8
			; Font[1049] @ 8392
	.bits		0,8
			; Font[1050] @ 8400
	.bits		0,8
			; Font[1051] @ 8408
	.bits		0x1f,8
			; Font[1052] @ 8416
	.bits		0x10,8
			; Font[1053] @ 8424
	.bits		0x1f,8
			; Font[1054] @ 8432
	.bits		0,8
			; Font[1055] @ 8440
	.bits		0,8
			; Font[1056] @ 8448
	.bits		0,8
			; Font[1057] @ 8456
	.bits		0x1f,8
			; Font[1058] @ 8464
	.bits		0x14,8
			; Font[1059] @ 8472
	.bits		0,8
			; Font[1060] @ 8480
	.bits		0,8
			; Font[1061] @ 8488
	.bits		0,8
			; Font[1062] @ 8496
	.bits		0xfc,8
			; Font[1063] @ 8504
	.bits		0x14,8
			; Font[1064] @ 8512
	.bits		0,8
			; Font[1065] @ 8520
	.bits		0,8
			; Font[1066] @ 8528
	.bits		0xf0,8
			; Font[1067] @ 8536
	.bits		0x10,8
			; Font[1068] @ 8544
	.bits		0xf0,8
			; Font[1069] @ 8552
	.bits		0x10,8
			; Font[1070] @ 8560
	.bits		0x10,8
			; Font[1071] @ 8568
	.bits		0xff,8
			; Font[1072] @ 8576
	.bits		0x10,8
			; Font[1073] @ 8584
	.bits		0xff,8
			; Font[1074] @ 8592
	.bits		0x14,8
			; Font[1075] @ 8600
	.bits		0x14,8
			; Font[1076] @ 8608
	.bits		0x14,8
			; Font[1077] @ 8616
	.bits		0xff,8
			; Font[1078] @ 8624
	.bits		0x14,8
			; Font[1079] @ 8632
	.bits		0x10,8
			; Font[1080] @ 8640
	.bits		0x10,8
			; Font[1081] @ 8648
	.bits		0x10,8
			; Font[1082] @ 8656
	.bits		0x1f,8
			; Font[1083] @ 8664
	.bits		0,8
			; Font[1084] @ 8672
	.bits		0,8
			; Font[1085] @ 8680
	.bits		0,8
			; Font[1086] @ 8688
	.bits		0,8
			; Font[1087] @ 8696
	.bits		0xf0,8
			; Font[1088] @ 8704
	.bits		0x10,8
			; Font[1089] @ 8712
	.bits		0xff,8
			; Font[1090] @ 8720
	.bits		0xff,8
			; Font[1091] @ 8728
	.bits		0xff,8
			; Font[1092] @ 8736
	.bits		0xff,8
			; Font[1093] @ 8744
	.bits		0xff,8
			; Font[1094] @ 8752
	.bits		0xf0,8
			; Font[1095] @ 8760
	.bits		0xf0,8
			; Font[1096] @ 8768
	.bits		0xf0,8
			; Font[1097] @ 8776
	.bits		0xf0,8
			; Font[1098] @ 8784
	.bits		0xf0,8
			; Font[1099] @ 8792
	.bits		0xff,8
			; Font[1100] @ 8800
	.bits		0xff,8
			; Font[1101] @ 8808
	.bits		0xff,8
			; Font[1102] @ 8816
	.bits		0,8
			; Font[1103] @ 8824
	.bits		0,8
			; Font[1104] @ 8832
	.bits		0,8
			; Font[1105] @ 8840
	.bits		0,8
			; Font[1106] @ 8848
	.bits		0,8
			; Font[1107] @ 8856
	.bits		0xff,8
			; Font[1108] @ 8864
	.bits		0xff,8
			; Font[1109] @ 8872
	.bits		0xf,8
			; Font[1110] @ 8880
	.bits		0xf,8
			; Font[1111] @ 8888
	.bits		0xf,8
			; Font[1112] @ 8896
	.bits		0xf,8
			; Font[1113] @ 8904
	.bits		0xf,8
			; Font[1114] @ 8912
	.bits		0x38,8
			; Font[1115] @ 8920
	.bits		0x44,8
			; Font[1116] @ 8928
	.bits		0x44,8
			; Font[1117] @ 8936
	.bits		0x38,8
			; Font[1118] @ 8944
	.bits		0x44,8
			; Font[1119] @ 8952
	.bits		0x7c,8
			; Font[1120] @ 8960
	.bits		0x2a,8
			; Font[1121] @ 8968
	.bits		0x2a,8
			; Font[1122] @ 8976
	.bits		0x3e,8
			; Font[1123] @ 8984
	.bits		0x14,8
			; Font[1124] @ 8992
	.bits		0x7e,8
			; Font[1125] @ 9000
	.bits		0x2,8
			; Font[1126] @ 9008
	.bits		0x2,8
			; Font[1127] @ 9016
	.bits		0x6,8
			; Font[1128] @ 9024
	.bits		0x6,8
			; Font[1129] @ 9032
	.bits		0x2,8
			; Font[1130] @ 9040
	.bits		0x7e,8
			; Font[1131] @ 9048
	.bits		0x2,8
			; Font[1132] @ 9056
	.bits		0x7e,8
			; Font[1133] @ 9064
	.bits		0x2,8
			; Font[1134] @ 9072
	.bits		0x63,8
			; Font[1135] @ 9080
	.bits		0x55,8
			; Font[1136] @ 9088
	.bits		0x49,8
			; Font[1137] @ 9096
	.bits		0x41,8
			; Font[1138] @ 9104
	.bits		0x63,8
			; Font[1139] @ 9112
	.bits		0x38,8
			; Font[1140] @ 9120
	.bits		0x44,8
			; Font[1141] @ 9128
	.bits		0x44,8
			; Font[1142] @ 9136
	.bits		0x3c,8
			; Font[1143] @ 9144
	.bits		0x4,8
			; Font[1144] @ 9152
	.bits		0x40,8
			; Font[1145] @ 9160
	.bits		0x7e,8
			; Font[1146] @ 9168
	.bits		0x20,8
			; Font[1147] @ 9176
	.bits		0x1e,8
			; Font[1148] @ 9184
	.bits		0x20,8
			; Font[1149] @ 9192
	.bits		0x6,8
			; Font[1150] @ 9200
	.bits		0x2,8
			; Font[1151] @ 9208
	.bits		0x7e,8
			; Font[1152] @ 9216
	.bits		0x2,8
			; Font[1153] @ 9224
	.bits		0x2,8
			; Font[1154] @ 9232
	.bits		0x99,8
			; Font[1155] @ 9240
	.bits		0xa5,8
			; Font[1156] @ 9248
	.bits		0xe7,8
			; Font[1157] @ 9256
	.bits		0xa5,8
			; Font[1158] @ 9264
	.bits		0x99,8
			; Font[1159] @ 9272
	.bits		0x1c,8
			; Font[1160] @ 9280
	.bits		0x2a,8
			; Font[1161] @ 9288
	.bits		0x49,8
			; Font[1162] @ 9296
	.bits		0x2a,8
			; Font[1163] @ 9304
	.bits		0x1c,8
			; Font[1164] @ 9312
	.bits		0x4c,8
			; Font[1165] @ 9320
	.bits		0x72,8
			; Font[1166] @ 9328
	.bits		0x1,8
			; Font[1167] @ 9336
	.bits		0x72,8
			; Font[1168] @ 9344
	.bits		0x4c,8
			; Font[1169] @ 9352
	.bits		0x30,8
			; Font[1170] @ 9360
	.bits		0x4a,8
			; Font[1171] @ 9368
	.bits		0x4d,8
			; Font[1172] @ 9376
	.bits		0x4d,8
			; Font[1173] @ 9384
	.bits		0x30,8
			; Font[1174] @ 9392
	.bits		0x30,8
			; Font[1175] @ 9400
	.bits		0x48,8
			; Font[1176] @ 9408
	.bits		0x78,8
			; Font[1177] @ 9416
	.bits		0x48,8
			; Font[1178] @ 9424
	.bits		0x30,8
			; Font[1179] @ 9432
	.bits		0xbc,8
			; Font[1180] @ 9440
	.bits		0x62,8
			; Font[1181] @ 9448
	.bits		0x5a,8
			; Font[1182] @ 9456
	.bits		0x46,8
			; Font[1183] @ 9464
	.bits		0x3d,8
			; Font[1184] @ 9472
	.bits		0x3e,8
			; Font[1185] @ 9480
	.bits		0x49,8
			; Font[1186] @ 9488
	.bits		0x49,8
			; Font[1187] @ 9496
	.bits		0x49,8
			; Font[1188] @ 9504
	.bits		0,8
			; Font[1189] @ 9512
	.bits		0x7e,8
			; Font[1190] @ 9520
	.bits		0x1,8
			; Font[1191] @ 9528
	.bits		0x1,8
			; Font[1192] @ 9536
	.bits		0x1,8
			; Font[1193] @ 9544
	.bits		0x7e,8
			; Font[1194] @ 9552
	.bits		0x2a,8
			; Font[1195] @ 9560
	.bits		0x2a,8
			; Font[1196] @ 9568
	.bits		0x2a,8
			; Font[1197] @ 9576
	.bits		0x2a,8
			; Font[1198] @ 9584
	.bits		0x2a,8
			; Font[1199] @ 9592
	.bits		0x44,8
			; Font[1200] @ 9600
	.bits		0x44,8
			; Font[1201] @ 9608
	.bits		0x5f,8
			; Font[1202] @ 9616
	.bits		0x44,8
			; Font[1203] @ 9624
	.bits		0x44,8
			; Font[1204] @ 9632
	.bits		0x40,8
			; Font[1205] @ 9640
	.bits		0x51,8
			; Font[1206] @ 9648
	.bits		0x4a,8
			; Font[1207] @ 9656
	.bits		0x44,8
			; Font[1208] @ 9664
	.bits		0x40,8
			; Font[1209] @ 9672
	.bits		0x40,8
			; Font[1210] @ 9680
	.bits		0x44,8
			; Font[1211] @ 9688
	.bits		0x4a,8
			; Font[1212] @ 9696
	.bits		0x51,8
			; Font[1213] @ 9704
	.bits		0x40,8
			; Font[1214] @ 9712
	.bits		0,8
			; Font[1215] @ 9720
	.bits		0,8
			; Font[1216] @ 9728
	.bits		0xff,8
			; Font[1217] @ 9736
	.bits		0x1,8
			; Font[1218] @ 9744
	.bits		0x3,8
			; Font[1219] @ 9752
	.bits		0xe0,8
			; Font[1220] @ 9760
	.bits		0x80,8
			; Font[1221] @ 9768
	.bits		0xff,8
			; Font[1222] @ 9776
	.bits		0,8
			; Font[1223] @ 9784
	.bits		0,8
			; Font[1224] @ 9792
	.bits		0x8,8
			; Font[1225] @ 9800
	.bits		0x8,8
			; Font[1226] @ 9808
	.bits		0x6b,8
			; Font[1227] @ 9816
	.bits		0x6b,8
			; Font[1228] @ 9824
	.bits		0x8,8
			; Font[1229] @ 9832
	.bits		0x36,8
			; Font[1230] @ 9840
	.bits		0x12,8
			; Font[1231] @ 9848
	.bits		0x36,8
			; Font[1232] @ 9856
	.bits		0x24,8
			; Font[1233] @ 9864
	.bits		0x36,8
			; Font[1234] @ 9872
	.bits		0x6,8
			; Font[1235] @ 9880
	.bits		0xf,8
			; Font[1236] @ 9888
	.bits		0x9,8
			; Font[1237] @ 9896
	.bits		0xf,8
			; Font[1238] @ 9904
	.bits		0x6,8
			; Font[1239] @ 9912
	.bits		0,8
			; Font[1240] @ 9920
	.bits		0,8
			; Font[1241] @ 9928
	.bits		0x18,8
			; Font[1242] @ 9936
	.bits		0x18,8
			; Font[1243] @ 9944
	.bits		0,8
			; Font[1244] @ 9952
	.bits		0,8
			; Font[1245] @ 9960
	.bits		0,8
			; Font[1246] @ 9968
	.bits		0x10,8
			; Font[1247] @ 9976
	.bits		0x10,8
			; Font[1248] @ 9984
	.bits		0,8
			; Font[1249] @ 9992
	.bits		0x30,8
			; Font[1250] @ 10000
	.bits		0x40,8
			; Font[1251] @ 10008
	.bits		0xff,8
			; Font[1252] @ 10016
	.bits		0x1,8
			; Font[1253] @ 10024
	.bits		0x1,8
			; Font[1254] @ 10032
	.bits		0,8
			; Font[1255] @ 10040
	.bits		0x1f,8
			; Font[1256] @ 10048
	.bits		0x1,8
			; Font[1257] @ 10056
	.bits		0x1,8
			; Font[1258] @ 10064
	.bits		0x1e,8
			; Font[1259] @ 10072
	.bits		0,8
			; Font[1260] @ 10080
	.bits		0x19,8
			; Font[1261] @ 10088
	.bits		0x1d,8
			; Font[1262] @ 10096
	.bits		0x17,8
			; Font[1263] @ 10104
	.bits		0x12,8
			; Font[1264] @ 10112
	.bits		0,8
			; Font[1265] @ 10120
	.bits		0x3c,8
			; Font[1266] @ 10128
	.bits		0x3c,8
			; Font[1267] @ 10136
	.bits		0x3c,8
			; Font[1268] @ 10144
	.bits		0x3c,8
			; Font[1269] @ 10152
	.bits		0,8
			; Font[1270] @ 10160
	.bits		0,8
			; Font[1271] @ 10168
	.bits		0,8
			; Font[1272] @ 10176
	.bits		0,8
			; Font[1273] @ 10184
	.bits		0,8
			; Font[1274] @ 10192

$C$DW$4	.dwtag  DW_TAG_variable
	.dwattr $C$DW$4, DW_AT_name("Font")
	.dwattr $C$DW$4, DW_AT_TI_symbol_name("Font")
	.dwattr $C$DW$4, DW_AT_type(*$C$DW$T$81)
	.dwattr $C$DW$4, DW_AT_location[DW_OP_addr Font]
	.dwattr $C$DW$4, DW_AT_decl_file("../ST7735.c")
	.dwattr $C$DW$4, DW_AT_decl_line(0xe4)
	.dwattr $C$DW$4, DW_AT_decl_column(0x16)

	.bss	ColStart,1,1
$C$DW$5	.dwtag  DW_TAG_variable
	.dwattr $C$DW$5, DW_AT_name("ColStart")
	.dwattr $C$DW$5, DW_AT_TI_symbol_name("ColStart")
	.dwattr $C$DW$5, DW_AT_type(*$C$DW$T$27)
	.dwattr $C$DW$5, DW_AT_location[DW_OP_addr ColStart]
	.dwattr $C$DW$5, DW_AT_decl_file("../ST7735.c")
	.dwattr $C$DW$5, DW_AT_decl_line(0x1e7)
	.dwattr $C$DW$5, DW_AT_decl_column(0x10)

	.bss	RowStart,1,1
$C$DW$6	.dwtag  DW_TAG_variable
	.dwattr $C$DW$6, DW_AT_name("RowStart")
	.dwattr $C$DW$6, DW_AT_TI_symbol_name("RowStart")
	.dwattr $C$DW$6, DW_AT_type(*$C$DW$T$27)
	.dwattr $C$DW$6, DW_AT_location[DW_OP_addr RowStart]
	.dwattr $C$DW$6, DW_AT_decl_file("../ST7735.c")
	.dwattr $C$DW$6, DW_AT_decl_line(0x1e7)
	.dwattr $C$DW$6, DW_AT_decl_column(0x1a)

	.bss	Rotation,1,1
$C$DW$7	.dwtag  DW_TAG_variable
	.dwattr $C$DW$7, DW_AT_name("Rotation")
	.dwattr $C$DW$7, DW_AT_TI_symbol_name("Rotation")
	.dwattr $C$DW$7, DW_AT_type(*$C$DW$T$27)
	.dwattr $C$DW$7, DW_AT_location[DW_OP_addr Rotation]
	.dwattr $C$DW$7, DW_AT_decl_file("../ST7735.c")
	.dwattr $C$DW$7, DW_AT_decl_line(0x1e8)
	.dwattr $C$DW$7, DW_AT_decl_column(0x10)

	.bss	TabColor,1,1
$C$DW$8	.dwtag  DW_TAG_variable
	.dwattr $C$DW$8, DW_AT_name("TabColor")
	.dwattr $C$DW$8, DW_AT_TI_symbol_name("TabColor")
	.dwattr $C$DW$8, DW_AT_type(*$C$DW$T$40)
	.dwattr $C$DW$8, DW_AT_location[DW_OP_addr TabColor]
	.dwattr $C$DW$8, DW_AT_decl_file("../ST7735.c")
	.dwattr $C$DW$8, DW_AT_decl_line(0x1e9)
	.dwattr $C$DW$8, DW_AT_decl_column(0x18)

	.data
	.align	2
	.elfsym	_width,SYM_SIZE(2)
_width:
	.bits		0x80,16
			; _width @ 0

$C$DW$9	.dwtag  DW_TAG_variable
	.dwattr $C$DW$9, DW_AT_name("_width")
	.dwattr $C$DW$9, DW_AT_TI_symbol_name("_width")
	.dwattr $C$DW$9, DW_AT_type(*$C$DW$T$50)
	.dwattr $C$DW$9, DW_AT_location[DW_OP_addr _width]
	.dwattr $C$DW$9, DW_AT_decl_file("../ST7735.c")
	.dwattr $C$DW$9, DW_AT_decl_line(0x1ea)
	.dwattr $C$DW$9, DW_AT_decl_column(0x10)

	.data
	.align	2
	.elfsym	_height,SYM_SIZE(2)
_height:
	.bits		0xa0,16
			; _height @ 0

$C$DW$10	.dwtag  DW_TAG_variable
	.dwattr $C$DW$10, DW_AT_name("_height")
	.dwattr $C$DW$10, DW_AT_TI_symbol_name("_height")
	.dwattr $C$DW$10, DW_AT_type(*$C$DW$T$50)
	.dwattr $C$DW$10, DW_AT_location[DW_OP_addr _height]
	.dwattr $C$DW$10, DW_AT_decl_file("../ST7735.c")
	.dwattr $C$DW$10, DW_AT_decl_line(0x1eb)
	.dwattr $C$DW$10, DW_AT_decl_column(0x10)

	.sect	".const:.string:Bcmd"
	.align	1
	.elfsym	Bcmd,SYM_SIZE(104)
Bcmd:
	.bits		0x12,8
			; Bcmd[0] @ 0
	.bits		0x1,8
			; Bcmd[1] @ 8
	.bits		0x80,8
			; Bcmd[2] @ 16
	.bits		0x32,8
			; Bcmd[3] @ 24
	.bits		0x11,8
			; Bcmd[4] @ 32
	.bits		0x80,8
			; Bcmd[5] @ 40
	.bits		0xff,8
			; Bcmd[6] @ 48
	.bits		0x3a,8
			; Bcmd[7] @ 56
	.bits		0x81,8
			; Bcmd[8] @ 64
	.bits		0x5,8
			; Bcmd[9] @ 72
	.bits		0xa,8
			; Bcmd[10] @ 80
	.bits		0xb1,8
			; Bcmd[11] @ 88
	.bits		0x83,8
			; Bcmd[12] @ 96
	.bits		0,8
			; Bcmd[13] @ 104
	.bits		0x6,8
			; Bcmd[14] @ 112
	.bits		0x3,8
			; Bcmd[15] @ 120
	.bits		0xa,8
			; Bcmd[16] @ 128
	.bits		0x36,8
			; Bcmd[17] @ 136
	.bits		0x1,8
			; Bcmd[18] @ 144
	.bits		0x8,8
			; Bcmd[19] @ 152
	.bits		0xb6,8
			; Bcmd[20] @ 160
	.bits		0x2,8
			; Bcmd[21] @ 168
	.bits		0x15,8
			; Bcmd[22] @ 176
	.bits		0x2,8
			; Bcmd[23] @ 184
	.bits		0xb4,8
			; Bcmd[24] @ 192
	.bits		0x1,8
			; Bcmd[25] @ 200
	.bits		0,8
			; Bcmd[26] @ 208
	.bits		0xc0,8
			; Bcmd[27] @ 216
	.bits		0x82,8
			; Bcmd[28] @ 224
	.bits		0x2,8
			; Bcmd[29] @ 232
	.bits		0x70,8
			; Bcmd[30] @ 240
	.bits		0xa,8
			; Bcmd[31] @ 248
	.bits		0xc1,8
			; Bcmd[32] @ 256
	.bits		0x1,8
			; Bcmd[33] @ 264
	.bits		0x5,8
			; Bcmd[34] @ 272
	.bits		0xc2,8
			; Bcmd[35] @ 280
	.bits		0x2,8
			; Bcmd[36] @ 288
	.bits		0x1,8
			; Bcmd[37] @ 296
	.bits		0x2,8
			; Bcmd[38] @ 304
	.bits		0xc5,8
			; Bcmd[39] @ 312
	.bits		0x82,8
			; Bcmd[40] @ 320
	.bits		0x3c,8
			; Bcmd[41] @ 328
	.bits		0x38,8
			; Bcmd[42] @ 336
	.bits		0xa,8
			; Bcmd[43] @ 344
	.bits		0xfc,8
			; Bcmd[44] @ 352
	.bits		0x2,8
			; Bcmd[45] @ 360
	.bits		0x11,8
			; Bcmd[46] @ 368
	.bits		0x15,8
			; Bcmd[47] @ 376
	.bits		0xe0,8
			; Bcmd[48] @ 384
	.bits		0x10,8
			; Bcmd[49] @ 392
	.bits		0x9,8
			; Bcmd[50] @ 400
	.bits		0x16,8
			; Bcmd[51] @ 408
	.bits		0x9,8
			; Bcmd[52] @ 416
	.bits		0x20,8
			; Bcmd[53] @ 424
	.bits		0x21,8
			; Bcmd[54] @ 432
	.bits		0x1b,8
			; Bcmd[55] @ 440
	.bits		0x13,8
			; Bcmd[56] @ 448
	.bits		0x19,8
			; Bcmd[57] @ 456
	.bits		0x17,8
			; Bcmd[58] @ 464
	.bits		0x15,8
			; Bcmd[59] @ 472
	.bits		0x1e,8
			; Bcmd[60] @ 480
	.bits		0x2b,8
			; Bcmd[61] @ 488
	.bits		0x4,8
			; Bcmd[62] @ 496
	.bits		0x5,8
			; Bcmd[63] @ 504
	.bits		0x2,8
			; Bcmd[64] @ 512
	.bits		0xe,8
			; Bcmd[65] @ 520
	.bits		0xe1,8
			; Bcmd[66] @ 528
	.bits		0x90,8
			; Bcmd[67] @ 536
	.bits		0xb,8
			; Bcmd[68] @ 544
	.bits		0x14,8
			; Bcmd[69] @ 552
	.bits		0x8,8
			; Bcmd[70] @ 560
	.bits		0x1e,8
			; Bcmd[71] @ 568
	.bits		0x22,8
			; Bcmd[72] @ 576
	.bits		0x1d,8
			; Bcmd[73] @ 584
	.bits		0x18,8
			; Bcmd[74] @ 592
	.bits		0x1e,8
			; Bcmd[75] @ 600
	.bits		0x1b,8
			; Bcmd[76] @ 608
	.bits		0x1a,8
			; Bcmd[77] @ 616
	.bits		0x24,8
			; Bcmd[78] @ 624
	.bits		0x2b,8
			; Bcmd[79] @ 632
	.bits		0x6,8
			; Bcmd[80] @ 640
	.bits		0x6,8
			; Bcmd[81] @ 648
	.bits		0x2,8
			; Bcmd[82] @ 656
	.bits		0xf,8
			; Bcmd[83] @ 664
	.bits		0xa,8
			; Bcmd[84] @ 672
	.bits		0x2a,8
			; Bcmd[85] @ 680
	.bits		0x4,8
			; Bcmd[86] @ 688
	.bits		0,8
			; Bcmd[87] @ 696
	.bits		0x2,8
			; Bcmd[88] @ 704
	.bits		0,8
			; Bcmd[89] @ 712
	.bits		0x81,8
			; Bcmd[90] @ 720
	.bits		0x2b,8
			; Bcmd[91] @ 728
	.bits		0x4,8
			; Bcmd[92] @ 736
	.bits		0,8
			; Bcmd[93] @ 744
	.bits		0x2,8
			; Bcmd[94] @ 752
	.bits		0,8
			; Bcmd[95] @ 760
	.bits		0x81,8
			; Bcmd[96] @ 768
	.bits		0x13,8
			; Bcmd[97] @ 776
	.bits		0x80,8
			; Bcmd[98] @ 784
	.bits		0xa,8
			; Bcmd[99] @ 792
	.bits		0x29,8
			; Bcmd[100] @ 800
	.bits		0x80,8
			; Bcmd[101] @ 808
	.bits		0xff,8
			; Bcmd[102] @ 816

$C$DW$11	.dwtag  DW_TAG_variable
	.dwattr $C$DW$11, DW_AT_name("Bcmd")
	.dwattr $C$DW$11, DW_AT_TI_symbol_name("Bcmd")
	.dwattr $C$DW$11, DW_AT_type(*$C$DW$T$82)
	.dwattr $C$DW$11, DW_AT_location[DW_OP_addr Bcmd]
	.dwattr $C$DW$11, DW_AT_decl_file("../ST7735.c")
	.dwattr $C$DW$11, DW_AT_decl_line(0x223)
	.dwattr $C$DW$11, DW_AT_decl_column(0x03)

	.sect	".const:.string:Rcmd1"
	.align	1
	.elfsym	Rcmd1,SYM_SIZE(60)
Rcmd1:
	.bits		0xf,8
			; Rcmd1[0] @ 0
	.bits		0x1,8
			; Rcmd1[1] @ 8
	.bits		0x80,8
			; Rcmd1[2] @ 16
	.bits		0x96,8
			; Rcmd1[3] @ 24
	.bits		0x11,8
			; Rcmd1[4] @ 32
	.bits		0x80,8
			; Rcmd1[5] @ 40
	.bits		0xff,8
			; Rcmd1[6] @ 48
	.bits		0xb1,8
			; Rcmd1[7] @ 56
	.bits		0x3,8
			; Rcmd1[8] @ 64
	.bits		0x1,8
			; Rcmd1[9] @ 72
	.bits		0x2c,8
			; Rcmd1[10] @ 80
	.bits		0x2d,8
			; Rcmd1[11] @ 88
	.bits		0xb2,8
			; Rcmd1[12] @ 96
	.bits		0x3,8
			; Rcmd1[13] @ 104
	.bits		0x1,8
			; Rcmd1[14] @ 112
	.bits		0x2c,8
			; Rcmd1[15] @ 120
	.bits		0x2d,8
			; Rcmd1[16] @ 128
	.bits		0xb3,8
			; Rcmd1[17] @ 136
	.bits		0x6,8
			; Rcmd1[18] @ 144
	.bits		0x1,8
			; Rcmd1[19] @ 152
	.bits		0x2c,8
			; Rcmd1[20] @ 160
	.bits		0x2d,8
			; Rcmd1[21] @ 168
	.bits		0x1,8
			; Rcmd1[22] @ 176
	.bits		0x2c,8
			; Rcmd1[23] @ 184
	.bits		0x2d,8
			; Rcmd1[24] @ 192
	.bits		0xb4,8
			; Rcmd1[25] @ 200
	.bits		0x1,8
			; Rcmd1[26] @ 208
	.bits		0x7,8
			; Rcmd1[27] @ 216
	.bits		0xc0,8
			; Rcmd1[28] @ 224
	.bits		0x3,8
			; Rcmd1[29] @ 232
	.bits		0xa2,8
			; Rcmd1[30] @ 240
	.bits		0x2,8
			; Rcmd1[31] @ 248
	.bits		0x84,8
			; Rcmd1[32] @ 256
	.bits		0xc1,8
			; Rcmd1[33] @ 264
	.bits		0x1,8
			; Rcmd1[34] @ 272
	.bits		0xc5,8
			; Rcmd1[35] @ 280
	.bits		0xc2,8
			; Rcmd1[36] @ 288
	.bits		0x2,8
			; Rcmd1[37] @ 296
	.bits		0xa,8
			; Rcmd1[38] @ 304
	.bits		0,8
			; Rcmd1[39] @ 312
	.bits		0xc3,8
			; Rcmd1[40] @ 320
	.bits		0x2,8
			; Rcmd1[41] @ 328
	.bits		0x8a,8
			; Rcmd1[42] @ 336
	.bits		0x2a,8
			; Rcmd1[43] @ 344
	.bits		0xc4,8
			; Rcmd1[44] @ 352
	.bits		0x2,8
			; Rcmd1[45] @ 360
	.bits		0x8a,8
			; Rcmd1[46] @ 368
	.bits		0xee,8
			; Rcmd1[47] @ 376
	.bits		0xc5,8
			; Rcmd1[48] @ 384
	.bits		0x1,8
			; Rcmd1[49] @ 392
	.bits		0xe,8
			; Rcmd1[50] @ 400
	.bits		0x20,8
			; Rcmd1[51] @ 408
	.bits		0,8
			; Rcmd1[52] @ 416
	.bits		0x36,8
			; Rcmd1[53] @ 424
	.bits		0x1,8
			; Rcmd1[54] @ 432
	.bits		0xc8,8
			; Rcmd1[55] @ 440
	.bits		0x3a,8
			; Rcmd1[56] @ 448
	.bits		0x1,8
			; Rcmd1[57] @ 456
	.bits		0x5,8
			; Rcmd1[58] @ 464

$C$DW$12	.dwtag  DW_TAG_variable
	.dwattr $C$DW$12, DW_AT_name("Rcmd1")
	.dwattr $C$DW$12, DW_AT_TI_symbol_name("Rcmd1")
	.dwattr $C$DW$12, DW_AT_type(*$C$DW$T$83)
	.dwattr $C$DW$12, DW_AT_location[DW_OP_addr Rcmd1]
	.dwattr $C$DW$12, DW_AT_decl_file("../ST7735.c")
	.dwattr $C$DW$12, DW_AT_decl_line(0x25e)
	.dwattr $C$DW$12, DW_AT_decl_column(0x03)

	.sect	".const:.string:Rcmd2green"
	.align	1
	.elfsym	Rcmd2green,SYM_SIZE(16)
Rcmd2green:
	.bits		0x2,8
			; Rcmd2green[0] @ 0
	.bits		0x2a,8
			; Rcmd2green[1] @ 8
	.bits		0x4,8
			; Rcmd2green[2] @ 16
	.bits		0,8
			; Rcmd2green[3] @ 24
	.bits		0x2,8
			; Rcmd2green[4] @ 32
	.bits		0,8
			; Rcmd2green[5] @ 40
	.bits		0x81,8
			; Rcmd2green[6] @ 48
	.bits		0x2b,8
			; Rcmd2green[7] @ 56
	.bits		0x4,8
			; Rcmd2green[8] @ 64
	.bits		0,8
			; Rcmd2green[9] @ 72
	.bits		0x1,8
			; Rcmd2green[10] @ 80
	.bits		0,8
			; Rcmd2green[11] @ 88
	.bits		0xa0,8
			; Rcmd2green[12] @ 96

$C$DW$13	.dwtag  DW_TAG_variable
	.dwattr $C$DW$13, DW_AT_name("Rcmd2green")
	.dwattr $C$DW$13, DW_AT_TI_symbol_name("Rcmd2green")
	.dwattr $C$DW$13, DW_AT_type(*$C$DW$T$84)
	.dwattr $C$DW$13, DW_AT_location[DW_OP_addr Rcmd2green]
	.dwattr $C$DW$13, DW_AT_decl_file("../ST7735.c")
	.dwattr $C$DW$13, DW_AT_decl_line(0x283)
	.dwattr $C$DW$13, DW_AT_decl_column(0x03)

	.sect	".const:.string:Rcmd2red"
	.align	1
	.elfsym	Rcmd2red,SYM_SIZE(16)
Rcmd2red:
	.bits		0x2,8
			; Rcmd2red[0] @ 0
	.bits		0x2a,8
			; Rcmd2red[1] @ 8
	.bits		0x4,8
			; Rcmd2red[2] @ 16
	.bits		0,8
			; Rcmd2red[3] @ 24
	.bits		0,8
			; Rcmd2red[4] @ 32
	.bits		0,8
			; Rcmd2red[5] @ 40
	.bits		0x7f,8
			; Rcmd2red[6] @ 48
	.bits		0x2b,8
			; Rcmd2red[7] @ 56
	.bits		0x4,8
			; Rcmd2red[8] @ 64
	.bits		0,8
			; Rcmd2red[9] @ 72
	.bits		0,8
			; Rcmd2red[10] @ 80
	.bits		0,8
			; Rcmd2red[11] @ 88
	.bits		0x9f,8
			; Rcmd2red[12] @ 96

$C$DW$14	.dwtag  DW_TAG_variable
	.dwattr $C$DW$14, DW_AT_name("Rcmd2red")
	.dwattr $C$DW$14, DW_AT_TI_symbol_name("Rcmd2red")
	.dwattr $C$DW$14, DW_AT_type(*$C$DW$T$84)
	.dwattr $C$DW$14, DW_AT_location[DW_OP_addr Rcmd2red]
	.dwattr $C$DW$14, DW_AT_decl_file("../ST7735.c")
	.dwattr $C$DW$14, DW_AT_decl_line(0x28c)
	.dwattr $C$DW$14, DW_AT_decl_column(0x03)

	.sect	".const:.string:Rcmd3"
	.align	1
	.elfsym	Rcmd3,SYM_SIZE(44)
Rcmd3:
	.bits		0x4,8
			; Rcmd3[0] @ 0
	.bits		0xe0,8
			; Rcmd3[1] @ 8
	.bits		0x10,8
			; Rcmd3[2] @ 16
	.bits		0x2,8
			; Rcmd3[3] @ 24
	.bits		0x1c,8
			; Rcmd3[4] @ 32
	.bits		0x7,8
			; Rcmd3[5] @ 40
	.bits		0x12,8
			; Rcmd3[6] @ 48
	.bits		0x37,8
			; Rcmd3[7] @ 56
	.bits		0x32,8
			; Rcmd3[8] @ 64
	.bits		0x29,8
			; Rcmd3[9] @ 72
	.bits		0x2d,8
			; Rcmd3[10] @ 80
	.bits		0x29,8
			; Rcmd3[11] @ 88
	.bits		0x25,8
			; Rcmd3[12] @ 96
	.bits		0x2b,8
			; Rcmd3[13] @ 104
	.bits		0x39,8
			; Rcmd3[14] @ 112
	.bits		0,8
			; Rcmd3[15] @ 120
	.bits		0x1,8
			; Rcmd3[16] @ 128
	.bits		0x3,8
			; Rcmd3[17] @ 136
	.bits		0x10,8
			; Rcmd3[18] @ 144
	.bits		0xe1,8
			; Rcmd3[19] @ 152
	.bits		0x10,8
			; Rcmd3[20] @ 160
	.bits		0x3,8
			; Rcmd3[21] @ 168
	.bits		0x1d,8
			; Rcmd3[22] @ 176
	.bits		0x7,8
			; Rcmd3[23] @ 184
	.bits		0x6,8
			; Rcmd3[24] @ 192
	.bits		0x2e,8
			; Rcmd3[25] @ 200
	.bits		0x2c,8
			; Rcmd3[26] @ 208
	.bits		0x29,8
			; Rcmd3[27] @ 216
	.bits		0x2d,8
			; Rcmd3[28] @ 224
	.bits		0x2e,8
			; Rcmd3[29] @ 232
	.bits		0x2e,8
			; Rcmd3[30] @ 240
	.bits		0x37,8
			; Rcmd3[31] @ 248
	.bits		0x3f,8
			; Rcmd3[32] @ 256
	.bits		0,8
			; Rcmd3[33] @ 264
	.bits		0,8
			; Rcmd3[34] @ 272
	.bits		0x2,8
			; Rcmd3[35] @ 280
	.bits		0x10,8
			; Rcmd3[36] @ 288
	.bits		0x13,8
			; Rcmd3[37] @ 296
	.bits		0x80,8
			; Rcmd3[38] @ 304
	.bits		0xa,8
			; Rcmd3[39] @ 312
	.bits		0x29,8
			; Rcmd3[40] @ 320
	.bits		0x80,8
			; Rcmd3[41] @ 328
	.bits		0x64,8
			; Rcmd3[42] @ 336

$C$DW$15	.dwtag  DW_TAG_variable
	.dwattr $C$DW$15, DW_AT_name("Rcmd3")
	.dwattr $C$DW$15, DW_AT_TI_symbol_name("Rcmd3")
	.dwattr $C$DW$15, DW_AT_type(*$C$DW$T$85)
	.dwattr $C$DW$15, DW_AT_location[DW_OP_addr Rcmd3]
	.dwattr $C$DW$15, DW_AT_decl_file("../ST7735.c")
	.dwattr $C$DW$15, DW_AT_decl_line(0x295)
	.dwattr $C$DW$15, DW_AT_decl_column(0x03)

	.global	Message
	.common	Message,12,1
$C$DW$16	.dwtag  DW_TAG_variable
	.dwattr $C$DW$16, DW_AT_name("Message")
	.dwattr $C$DW$16, DW_AT_TI_symbol_name("Message")
	.dwattr $C$DW$16, DW_AT_location[DW_OP_addr Message]
	.dwattr $C$DW$16, DW_AT_type(*$C$DW$T$193)
	.dwattr $C$DW$16, DW_AT_external
	.dwattr $C$DW$16, DW_AT_decl_file("../ST7735.c")
	.dwattr $C$DW$16, DW_AT_decl_line(0x484)
	.dwattr $C$DW$16, DW_AT_decl_column(0x06)

	.global	Messageindex
	.common	Messageindex,4,4
$C$DW$17	.dwtag  DW_TAG_variable
	.dwattr $C$DW$17, DW_AT_name("Messageindex")
	.dwattr $C$DW$17, DW_AT_TI_symbol_name("Messageindex")
	.dwattr $C$DW$17, DW_AT_location[DW_OP_addr Messageindex]
	.dwattr $C$DW$17, DW_AT_type(*$C$DW$T$31)
	.dwattr $C$DW$17, DW_AT_external
	.dwattr $C$DW$17, DW_AT_decl_file("../ST7735.c")
	.dwattr $C$DW$17, DW_AT_decl_line(0x485)
	.dwattr $C$DW$17, DW_AT_decl_column(0x0a)

	.global	Ymax
	.common	Ymax,4,4
$C$DW$18	.dwtag  DW_TAG_variable
	.dwattr $C$DW$18, DW_AT_name("Ymax")
	.dwattr $C$DW$18, DW_AT_TI_symbol_name("Ymax")
	.dwattr $C$DW$18, DW_AT_location[DW_OP_addr Ymax]
	.dwattr $C$DW$18, DW_AT_type(*$C$DW$T$67)
	.dwattr $C$DW$18, DW_AT_external
	.dwattr $C$DW$18, DW_AT_decl_file("../ST7735.c")
	.dwattr $C$DW$18, DW_AT_decl_line(0x501)
	.dwattr $C$DW$18, DW_AT_decl_column(0x09)

	.global	Ymin
	.common	Ymin,4,4
$C$DW$19	.dwtag  DW_TAG_variable
	.dwattr $C$DW$19, DW_AT_name("Ymin")
	.dwattr $C$DW$19, DW_AT_TI_symbol_name("Ymin")
	.dwattr $C$DW$19, DW_AT_location[DW_OP_addr Ymin]
	.dwattr $C$DW$19, DW_AT_type(*$C$DW$T$67)
	.dwattr $C$DW$19, DW_AT_external
	.dwattr $C$DW$19, DW_AT_decl_file("../ST7735.c")
	.dwattr $C$DW$19, DW_AT_decl_line(0x501)
	.dwattr $C$DW$19, DW_AT_decl_column(0x0e)

	.global	X
	.common	X,4,4
$C$DW$20	.dwtag  DW_TAG_variable
	.dwattr $C$DW$20, DW_AT_name("X")
	.dwattr $C$DW$20, DW_AT_TI_symbol_name("X")
	.dwattr $C$DW$20, DW_AT_location[DW_OP_addr X]
	.dwattr $C$DW$20, DW_AT_type(*$C$DW$T$67)
	.dwattr $C$DW$20, DW_AT_external
	.dwattr $C$DW$20, DW_AT_decl_file("../ST7735.c")
	.dwattr $C$DW$20, DW_AT_decl_line(0x501)
	.dwattr $C$DW$20, DW_AT_decl_column(0x13)

	.global	Yrange
	.common	Yrange,4,4
$C$DW$21	.dwtag  DW_TAG_variable
	.dwattr $C$DW$21, DW_AT_name("Yrange")
	.dwattr $C$DW$21, DW_AT_TI_symbol_name("Yrange")
	.dwattr $C$DW$21, DW_AT_location[DW_OP_addr Yrange]
	.dwattr $C$DW$21, DW_AT_type(*$C$DW$T$67)
	.dwattr $C$DW$21, DW_AT_external
	.dwattr $C$DW$21, DW_AT_decl_file("../ST7735.c")
	.dwattr $C$DW$21, DW_AT_decl_line(0x502)
	.dwattr $C$DW$21, DW_AT_decl_column(0x09)

	.global	lastj
	.data
	.align	4
	.elfsym	lastj,SYM_SIZE(4)
lastj:
	.bits		0,32
			; lastj @ 0

$C$DW$22	.dwtag  DW_TAG_variable
	.dwattr $C$DW$22, DW_AT_name("lastj")
	.dwattr $C$DW$22, DW_AT_TI_symbol_name("lastj")
	.dwattr $C$DW$22, DW_AT_location[DW_OP_addr lastj]
	.dwattr $C$DW$22, DW_AT_type(*$C$DW$T$67)
	.dwattr $C$DW$22, DW_AT_external
	.dwattr $C$DW$22, DW_AT_decl_file("../ST7735.c")
	.dwattr $C$DW$22, DW_AT_decl_line(0x531)
	.dwattr $C$DW$22, DW_AT_decl_column(0x09)

	.global	dBfs
	.sect	".const:.string:dBfs"
	.align	1
	.elfsym	dBfs,SYM_SIZE(512)
dBfs:
	.bits		0x9f,8
			; dBfs[0] @ 0
	.bits		0x9f,8
			; dBfs[1] @ 8
	.bits		0x91,8
			; dBfs[2] @ 16
	.bits		0x89,8
			; dBfs[3] @ 24
	.bits		0x83,8
			; dBfs[4] @ 32
	.bits		0x7e,8
			; dBfs[5] @ 40
	.bits		0x7b,8
			; dBfs[6] @ 48
	.bits		0x77,8
			; dBfs[7] @ 56
	.bits		0x75,8
			; dBfs[8] @ 64
	.bits		0x72,8
			; dBfs[9] @ 72
	.bits		0x70,8
			; dBfs[10] @ 80
	.bits		0x6e,8
			; dBfs[11] @ 88
	.bits		0x6c,8
			; dBfs[12] @ 96
	.bits		0x6b,8
			; dBfs[13] @ 104
	.bits		0x69,8
			; dBfs[14] @ 112
	.bits		0x68,8
			; dBfs[15] @ 120
	.bits		0x67,8
			; dBfs[16] @ 128
	.bits		0x65,8
			; dBfs[17] @ 136
	.bits		0x64,8
			; dBfs[18] @ 144
	.bits		0x63,8
			; dBfs[19] @ 152
	.bits		0x62,8
			; dBfs[20] @ 160
	.bits		0x61,8
			; dBfs[21] @ 168
	.bits		0x60,8
			; dBfs[22] @ 176
	.bits		0x5f,8
			; dBfs[23] @ 184
	.bits		0x5e,8
			; dBfs[24] @ 192
	.bits		0x5d,8
			; dBfs[25] @ 200
	.bits		0x5d,8
			; dBfs[26] @ 208
	.bits		0x5c,8
			; dBfs[27] @ 216
	.bits		0x5b,8
			; dBfs[28] @ 224
	.bits		0x5a,8
			; dBfs[29] @ 232
	.bits		0x5a,8
			; dBfs[30] @ 240
	.bits		0x59,8
			; dBfs[31] @ 248
	.bits		0x58,8
			; dBfs[32] @ 256
	.bits		0x58,8
			; dBfs[33] @ 264
	.bits		0x57,8
			; dBfs[34] @ 272
	.bits		0x57,8
			; dBfs[35] @ 280
	.bits		0x56,8
			; dBfs[36] @ 288
	.bits		0x55,8
			; dBfs[37] @ 296
	.bits		0x55,8
			; dBfs[38] @ 304
	.bits		0x54,8
			; dBfs[39] @ 312
	.bits		0x54,8
			; dBfs[40] @ 320
	.bits		0x53,8
			; dBfs[41] @ 328
	.bits		0x53,8
			; dBfs[42] @ 336
	.bits		0x52,8
			; dBfs[43] @ 344
	.bits		0x52,8
			; dBfs[44] @ 352
	.bits		0x51,8
			; dBfs[45] @ 360
	.bits		0x51,8
			; dBfs[46] @ 368
	.bits		0x51,8
			; dBfs[47] @ 376
	.bits		0x50,8
			; dBfs[48] @ 384
	.bits		0x50,8
			; dBfs[49] @ 392
	.bits		0x4f,8
			; dBfs[50] @ 400
	.bits		0x4f,8
			; dBfs[51] @ 408
	.bits		0x4f,8
			; dBfs[52] @ 416
	.bits		0x4e,8
			; dBfs[53] @ 424
	.bits		0x4e,8
			; dBfs[54] @ 432
	.bits		0x4d,8
			; dBfs[55] @ 440
	.bits		0x4d,8
			; dBfs[56] @ 448
	.bits		0x4d,8
			; dBfs[57] @ 456
	.bits		0x4c,8
			; dBfs[58] @ 464
	.bits		0x4c,8
			; dBfs[59] @ 472
	.bits		0x4c,8
			; dBfs[60] @ 480
	.bits		0x4b,8
			; dBfs[61] @ 488
	.bits		0x4b,8
			; dBfs[62] @ 496
	.bits		0x4b,8
			; dBfs[63] @ 504
	.bits		0x4a,8
			; dBfs[64] @ 512
	.bits		0x4a,8
			; dBfs[65] @ 520
	.bits		0x4a,8
			; dBfs[66] @ 528
	.bits		0x49,8
			; dBfs[67] @ 536
	.bits		0x49,8
			; dBfs[68] @ 544
	.bits		0x49,8
			; dBfs[69] @ 552
	.bits		0x48,8
			; dBfs[70] @ 560
	.bits		0x48,8
			; dBfs[71] @ 568
	.bits		0x48,8
			; dBfs[72] @ 576
	.bits		0x48,8
			; dBfs[73] @ 584
	.bits		0x47,8
			; dBfs[74] @ 592
	.bits		0x47,8
			; dBfs[75] @ 600
	.bits		0x47,8
			; dBfs[76] @ 608
	.bits		0x47,8
			; dBfs[77] @ 616
	.bits		0x46,8
			; dBfs[78] @ 624
	.bits		0x46,8
			; dBfs[79] @ 632
	.bits		0x46,8
			; dBfs[80] @ 640
	.bits		0x46,8
			; dBfs[81] @ 648
	.bits		0x45,8
			; dBfs[82] @ 656
	.bits		0x45,8
			; dBfs[83] @ 664
	.bits		0x45,8
			; dBfs[84] @ 672
	.bits		0x45,8
			; dBfs[85] @ 680
	.bits		0x44,8
			; dBfs[86] @ 688
	.bits		0x44,8
			; dBfs[87] @ 696
	.bits		0x44,8
			; dBfs[88] @ 704
	.bits		0x44,8
			; dBfs[89] @ 712
	.bits		0x43,8
			; dBfs[90] @ 720
	.bits		0x43,8
			; dBfs[91] @ 728
	.bits		0x43,8
			; dBfs[92] @ 736
	.bits		0x43,8
			; dBfs[93] @ 744
	.bits		0x42,8
			; dBfs[94] @ 752
	.bits		0x42,8
			; dBfs[95] @ 760
	.bits		0x42,8
			; dBfs[96] @ 768
	.bits		0x42,8
			; dBfs[97] @ 776
	.bits		0x42,8
			; dBfs[98] @ 784
	.bits		0x41,8
			; dBfs[99] @ 792
	.bits		0x41,8
			; dBfs[100] @ 800
	.bits		0x41,8
			; dBfs[101] @ 808
	.bits		0x41,8
			; dBfs[102] @ 816
	.bits		0x41,8
			; dBfs[103] @ 824
	.bits		0x40,8
			; dBfs[104] @ 832
	.bits		0x40,8
			; dBfs[105] @ 840
	.bits		0x40,8
			; dBfs[106] @ 848
	.bits		0x40,8
			; dBfs[107] @ 856
	.bits		0x40,8
			; dBfs[108] @ 864
	.bits		0x3f,8
			; dBfs[109] @ 872
	.bits		0x3f,8
			; dBfs[110] @ 880
	.bits		0x3f,8
			; dBfs[111] @ 888
	.bits		0x3f,8
			; dBfs[112] @ 896
	.bits		0x3f,8
			; dBfs[113] @ 904
	.bits		0x3f,8
			; dBfs[114] @ 912
	.bits		0x3e,8
			; dBfs[115] @ 920
	.bits		0x3e,8
			; dBfs[116] @ 928
	.bits		0x3e,8
			; dBfs[117] @ 936
	.bits		0x3e,8
			; dBfs[118] @ 944
	.bits		0x3e,8
			; dBfs[119] @ 952
	.bits		0x3e,8
			; dBfs[120] @ 960
	.bits		0x3d,8
			; dBfs[121] @ 968
	.bits		0x3d,8
			; dBfs[122] @ 976
	.bits		0x3d,8
			; dBfs[123] @ 984
	.bits		0x3d,8
			; dBfs[124] @ 992
	.bits		0x3d,8
			; dBfs[125] @ 1000
	.bits		0x3d,8
			; dBfs[126] @ 1008
	.bits		0x3c,8
			; dBfs[127] @ 1016
	.bits		0x3c,8
			; dBfs[128] @ 1024
	.bits		0x3c,8
			; dBfs[129] @ 1032
	.bits		0x3c,8
			; dBfs[130] @ 1040
	.bits		0x3c,8
			; dBfs[131] @ 1048
	.bits		0x3c,8
			; dBfs[132] @ 1056
	.bits		0x3b,8
			; dBfs[133] @ 1064
	.bits		0x3b,8
			; dBfs[134] @ 1072
	.bits		0x3b,8
			; dBfs[135] @ 1080
	.bits		0x3b,8
			; dBfs[136] @ 1088
	.bits		0x3b,8
			; dBfs[137] @ 1096
	.bits		0x3b,8
			; dBfs[138] @ 1104
	.bits		0x3b,8
			; dBfs[139] @ 1112
	.bits		0x3a,8
			; dBfs[140] @ 1120
	.bits		0x3a,8
			; dBfs[141] @ 1128
	.bits		0x3a,8
			; dBfs[142] @ 1136
	.bits		0x3a,8
			; dBfs[143] @ 1144
	.bits		0x3a,8
			; dBfs[144] @ 1152
	.bits		0x3a,8
			; dBfs[145] @ 1160
	.bits		0x3a,8
			; dBfs[146] @ 1168
	.bits		0x39,8
			; dBfs[147] @ 1176
	.bits		0x39,8
			; dBfs[148] @ 1184
	.bits		0x39,8
			; dBfs[149] @ 1192
	.bits		0x39,8
			; dBfs[150] @ 1200
	.bits		0x39,8
			; dBfs[151] @ 1208
	.bits		0x39,8
			; dBfs[152] @ 1216
	.bits		0x39,8
			; dBfs[153] @ 1224
	.bits		0x38,8
			; dBfs[154] @ 1232
	.bits		0x38,8
			; dBfs[155] @ 1240
	.bits		0x38,8
			; dBfs[156] @ 1248
	.bits		0x38,8
			; dBfs[157] @ 1256
	.bits		0x38,8
			; dBfs[158] @ 1264
	.bits		0x38,8
			; dBfs[159] @ 1272
	.bits		0x38,8
			; dBfs[160] @ 1280
	.bits		0x38,8
			; dBfs[161] @ 1288
	.bits		0x37,8
			; dBfs[162] @ 1296
	.bits		0x37,8
			; dBfs[163] @ 1304
	.bits		0x37,8
			; dBfs[164] @ 1312
	.bits		0x37,8
			; dBfs[165] @ 1320
	.bits		0x37,8
			; dBfs[166] @ 1328
	.bits		0x37,8
			; dBfs[167] @ 1336
	.bits		0x37,8
			; dBfs[168] @ 1344
	.bits		0x37,8
			; dBfs[169] @ 1352
	.bits		0x36,8
			; dBfs[170] @ 1360
	.bits		0x36,8
			; dBfs[171] @ 1368
	.bits		0x36,8
			; dBfs[172] @ 1376
	.bits		0x36,8
			; dBfs[173] @ 1384
	.bits		0x36,8
			; dBfs[174] @ 1392
	.bits		0x36,8
			; dBfs[175] @ 1400
	.bits		0x36,8
			; dBfs[176] @ 1408
	.bits		0x36,8
			; dBfs[177] @ 1416
	.bits		0x35,8
			; dBfs[178] @ 1424
	.bits		0x35,8
			; dBfs[179] @ 1432
	.bits		0x35,8
			; dBfs[180] @ 1440
	.bits		0x35,8
			; dBfs[181] @ 1448
	.bits		0x35,8
			; dBfs[182] @ 1456
	.bits		0x35,8
			; dBfs[183] @ 1464
	.bits		0x35,8
			; dBfs[184] @ 1472
	.bits		0x35,8
			; dBfs[185] @ 1480
	.bits		0x35,8
			; dBfs[186] @ 1488
	.bits		0x34,8
			; dBfs[187] @ 1496
	.bits		0x34,8
			; dBfs[188] @ 1504
	.bits		0x34,8
			; dBfs[189] @ 1512
	.bits		0x34,8
			; dBfs[190] @ 1520
	.bits		0x34,8
			; dBfs[191] @ 1528
	.bits		0x34,8
			; dBfs[192] @ 1536
	.bits		0x34,8
			; dBfs[193] @ 1544
	.bits		0x34,8
			; dBfs[194] @ 1552
	.bits		0x34,8
			; dBfs[195] @ 1560
	.bits		0x34,8
			; dBfs[196] @ 1568
	.bits		0x33,8
			; dBfs[197] @ 1576
	.bits		0x33,8
			; dBfs[198] @ 1584
	.bits		0x33,8
			; dBfs[199] @ 1592
	.bits		0x33,8
			; dBfs[200] @ 1600
	.bits		0x33,8
			; dBfs[201] @ 1608
	.bits		0x33,8
			; dBfs[202] @ 1616
	.bits		0x33,8
			; dBfs[203] @ 1624
	.bits		0x33,8
			; dBfs[204] @ 1632
	.bits		0x33,8
			; dBfs[205] @ 1640
	.bits		0x33,8
			; dBfs[206] @ 1648
	.bits		0x32,8
			; dBfs[207] @ 1656
	.bits		0x32,8
			; dBfs[208] @ 1664
	.bits		0x32,8
			; dBfs[209] @ 1672
	.bits		0x32,8
			; dBfs[210] @ 1680
	.bits		0x32,8
			; dBfs[211] @ 1688
	.bits		0x32,8
			; dBfs[212] @ 1696
	.bits		0x32,8
			; dBfs[213] @ 1704
	.bits		0x32,8
			; dBfs[214] @ 1712
	.bits		0x32,8
			; dBfs[215] @ 1720
	.bits		0x32,8
			; dBfs[216] @ 1728
	.bits		0x31,8
			; dBfs[217] @ 1736
	.bits		0x31,8
			; dBfs[218] @ 1744
	.bits		0x31,8
			; dBfs[219] @ 1752
	.bits		0x31,8
			; dBfs[220] @ 1760
	.bits		0x31,8
			; dBfs[221] @ 1768
	.bits		0x31,8
			; dBfs[222] @ 1776
	.bits		0x31,8
			; dBfs[223] @ 1784
	.bits		0x31,8
			; dBfs[224] @ 1792
	.bits		0x31,8
			; dBfs[225] @ 1800
	.bits		0x31,8
			; dBfs[226] @ 1808
	.bits		0x31,8
			; dBfs[227] @ 1816
	.bits		0x30,8
			; dBfs[228] @ 1824
	.bits		0x30,8
			; dBfs[229] @ 1832
	.bits		0x30,8
			; dBfs[230] @ 1840
	.bits		0x30,8
			; dBfs[231] @ 1848
	.bits		0x30,8
			; dBfs[232] @ 1856
	.bits		0x30,8
			; dBfs[233] @ 1864
	.bits		0x30,8
			; dBfs[234] @ 1872
	.bits		0x30,8
			; dBfs[235] @ 1880
	.bits		0x30,8
			; dBfs[236] @ 1888
	.bits		0x30,8
			; dBfs[237] @ 1896
	.bits		0x30,8
			; dBfs[238] @ 1904
	.bits		0x2f,8
			; dBfs[239] @ 1912
	.bits		0x2f,8
			; dBfs[240] @ 1920
	.bits		0x2f,8
			; dBfs[241] @ 1928
	.bits		0x2f,8
			; dBfs[242] @ 1936
	.bits		0x2f,8
			; dBfs[243] @ 1944
	.bits		0x2f,8
			; dBfs[244] @ 1952
	.bits		0x2f,8
			; dBfs[245] @ 1960
	.bits		0x2f,8
			; dBfs[246] @ 1968
	.bits		0x2f,8
			; dBfs[247] @ 1976
	.bits		0x2f,8
			; dBfs[248] @ 1984
	.bits		0x2f,8
			; dBfs[249] @ 1992
	.bits		0x2f,8
			; dBfs[250] @ 2000
	.bits		0x2e,8
			; dBfs[251] @ 2008
	.bits		0x2e,8
			; dBfs[252] @ 2016
	.bits		0x2e,8
			; dBfs[253] @ 2024
	.bits		0x2e,8
			; dBfs[254] @ 2032
	.bits		0x2e,8
			; dBfs[255] @ 2040
	.bits		0x2e,8
			; dBfs[256] @ 2048
	.bits		0x2e,8
			; dBfs[257] @ 2056
	.bits		0x2e,8
			; dBfs[258] @ 2064
	.bits		0x2e,8
			; dBfs[259] @ 2072
	.bits		0x2e,8
			; dBfs[260] @ 2080
	.bits		0x2e,8
			; dBfs[261] @ 2088
	.bits		0x2e,8
			; dBfs[262] @ 2096
	.bits		0x2e,8
			; dBfs[263] @ 2104
	.bits		0x2d,8
			; dBfs[264] @ 2112
	.bits		0x2d,8
			; dBfs[265] @ 2120
	.bits		0x2d,8
			; dBfs[266] @ 2128
	.bits		0x2d,8
			; dBfs[267] @ 2136
	.bits		0x2d,8
			; dBfs[268] @ 2144
	.bits		0x2d,8
			; dBfs[269] @ 2152
	.bits		0x2d,8
			; dBfs[270] @ 2160
	.bits		0x2d,8
			; dBfs[271] @ 2168
	.bits		0x2d,8
			; dBfs[272] @ 2176
	.bits		0x2d,8
			; dBfs[273] @ 2184
	.bits		0x2d,8
			; dBfs[274] @ 2192
	.bits		0x2d,8
			; dBfs[275] @ 2200
	.bits		0x2d,8
			; dBfs[276] @ 2208
	.bits		0x2c,8
			; dBfs[277] @ 2216
	.bits		0x2c,8
			; dBfs[278] @ 2224
	.bits		0x2c,8
			; dBfs[279] @ 2232
	.bits		0x2c,8
			; dBfs[280] @ 2240
	.bits		0x2c,8
			; dBfs[281] @ 2248
	.bits		0x2c,8
			; dBfs[282] @ 2256
	.bits		0x2c,8
			; dBfs[283] @ 2264
	.bits		0x2c,8
			; dBfs[284] @ 2272
	.bits		0x2c,8
			; dBfs[285] @ 2280
	.bits		0x2c,8
			; dBfs[286] @ 2288
	.bits		0x2c,8
			; dBfs[287] @ 2296
	.bits		0x2c,8
			; dBfs[288] @ 2304
	.bits		0x2c,8
			; dBfs[289] @ 2312
	.bits		0x2c,8
			; dBfs[290] @ 2320
	.bits		0x2b,8
			; dBfs[291] @ 2328
	.bits		0x2b,8
			; dBfs[292] @ 2336
	.bits		0x2b,8
			; dBfs[293] @ 2344
	.bits		0x2b,8
			; dBfs[294] @ 2352
	.bits		0x2b,8
			; dBfs[295] @ 2360
	.bits		0x2b,8
			; dBfs[296] @ 2368
	.bits		0x2b,8
			; dBfs[297] @ 2376
	.bits		0x2b,8
			; dBfs[298] @ 2384
	.bits		0x2b,8
			; dBfs[299] @ 2392
	.bits		0x2b,8
			; dBfs[300] @ 2400
	.bits		0x2b,8
			; dBfs[301] @ 2408
	.bits		0x2b,8
			; dBfs[302] @ 2416
	.bits		0x2b,8
			; dBfs[303] @ 2424
	.bits		0x2b,8
			; dBfs[304] @ 2432
	.bits		0x2b,8
			; dBfs[305] @ 2440
	.bits		0x2a,8
			; dBfs[306] @ 2448
	.bits		0x2a,8
			; dBfs[307] @ 2456
	.bits		0x2a,8
			; dBfs[308] @ 2464
	.bits		0x2a,8
			; dBfs[309] @ 2472
	.bits		0x2a,8
			; dBfs[310] @ 2480
	.bits		0x2a,8
			; dBfs[311] @ 2488
	.bits		0x2a,8
			; dBfs[312] @ 2496
	.bits		0x2a,8
			; dBfs[313] @ 2504
	.bits		0x2a,8
			; dBfs[314] @ 2512
	.bits		0x2a,8
			; dBfs[315] @ 2520
	.bits		0x2a,8
			; dBfs[316] @ 2528
	.bits		0x2a,8
			; dBfs[317] @ 2536
	.bits		0x2a,8
			; dBfs[318] @ 2544
	.bits		0x2a,8
			; dBfs[319] @ 2552
	.bits		0x2a,8
			; dBfs[320] @ 2560
	.bits		0x29,8
			; dBfs[321] @ 2568
	.bits		0x29,8
			; dBfs[322] @ 2576
	.bits		0x29,8
			; dBfs[323] @ 2584
	.bits		0x29,8
			; dBfs[324] @ 2592
	.bits		0x29,8
			; dBfs[325] @ 2600
	.bits		0x29,8
			; dBfs[326] @ 2608
	.bits		0x29,8
			; dBfs[327] @ 2616
	.bits		0x29,8
			; dBfs[328] @ 2624
	.bits		0x29,8
			; dBfs[329] @ 2632
	.bits		0x29,8
			; dBfs[330] @ 2640
	.bits		0x29,8
			; dBfs[331] @ 2648
	.bits		0x29,8
			; dBfs[332] @ 2656
	.bits		0x29,8
			; dBfs[333] @ 2664
	.bits		0x29,8
			; dBfs[334] @ 2672
	.bits		0x29,8
			; dBfs[335] @ 2680
	.bits		0x29,8
			; dBfs[336] @ 2688
	.bits		0x28,8
			; dBfs[337] @ 2696
	.bits		0x28,8
			; dBfs[338] @ 2704
	.bits		0x28,8
			; dBfs[339] @ 2712
	.bits		0x28,8
			; dBfs[340] @ 2720
	.bits		0x28,8
			; dBfs[341] @ 2728
	.bits		0x28,8
			; dBfs[342] @ 2736
	.bits		0x28,8
			; dBfs[343] @ 2744
	.bits		0x28,8
			; dBfs[344] @ 2752
	.bits		0x28,8
			; dBfs[345] @ 2760
	.bits		0x28,8
			; dBfs[346] @ 2768
	.bits		0x28,8
			; dBfs[347] @ 2776
	.bits		0x28,8
			; dBfs[348] @ 2784
	.bits		0x28,8
			; dBfs[349] @ 2792
	.bits		0x28,8
			; dBfs[350] @ 2800
	.bits		0x28,8
			; dBfs[351] @ 2808
	.bits		0x28,8
			; dBfs[352] @ 2816
	.bits		0x28,8
			; dBfs[353] @ 2824
	.bits		0x27,8
			; dBfs[354] @ 2832
	.bits		0x27,8
			; dBfs[355] @ 2840
	.bits		0x27,8
			; dBfs[356] @ 2848
	.bits		0x27,8
			; dBfs[357] @ 2856
	.bits		0x27,8
			; dBfs[358] @ 2864
	.bits		0x27,8
			; dBfs[359] @ 2872
	.bits		0x27,8
			; dBfs[360] @ 2880
	.bits		0x27,8
			; dBfs[361] @ 2888
	.bits		0x27,8
			; dBfs[362] @ 2896
	.bits		0x27,8
			; dBfs[363] @ 2904
	.bits		0x27,8
			; dBfs[364] @ 2912
	.bits		0x27,8
			; dBfs[365] @ 2920
	.bits		0x27,8
			; dBfs[366] @ 2928
	.bits		0x27,8
			; dBfs[367] @ 2936
	.bits		0x27,8
			; dBfs[368] @ 2944
	.bits		0x27,8
			; dBfs[369] @ 2952
	.bits		0x27,8
			; dBfs[370] @ 2960
	.bits		0x27,8
			; dBfs[371] @ 2968
	.bits		0x26,8
			; dBfs[372] @ 2976
	.bits		0x26,8
			; dBfs[373] @ 2984
	.bits		0x26,8
			; dBfs[374] @ 2992
	.bits		0x26,8
			; dBfs[375] @ 3000
	.bits		0x26,8
			; dBfs[376] @ 3008
	.bits		0x26,8
			; dBfs[377] @ 3016
	.bits		0x26,8
			; dBfs[378] @ 3024
	.bits		0x26,8
			; dBfs[379] @ 3032
	.bits		0x26,8
			; dBfs[380] @ 3040
	.bits		0x26,8
			; dBfs[381] @ 3048
	.bits		0x26,8
			; dBfs[382] @ 3056
	.bits		0x26,8
			; dBfs[383] @ 3064
	.bits		0x26,8
			; dBfs[384] @ 3072
	.bits		0x26,8
			; dBfs[385] @ 3080
	.bits		0x26,8
			; dBfs[386] @ 3088
	.bits		0x26,8
			; dBfs[387] @ 3096
	.bits		0x26,8
			; dBfs[388] @ 3104
	.bits		0x26,8
			; dBfs[389] @ 3112
	.bits		0x26,8
			; dBfs[390] @ 3120
	.bits		0x25,8
			; dBfs[391] @ 3128
	.bits		0x25,8
			; dBfs[392] @ 3136
	.bits		0x25,8
			; dBfs[393] @ 3144
	.bits		0x25,8
			; dBfs[394] @ 3152
	.bits		0x25,8
			; dBfs[395] @ 3160
	.bits		0x25,8
			; dBfs[396] @ 3168
	.bits		0x25,8
			; dBfs[397] @ 3176
	.bits		0x25,8
			; dBfs[398] @ 3184
	.bits		0x25,8
			; dBfs[399] @ 3192
	.bits		0x25,8
			; dBfs[400] @ 3200
	.bits		0x25,8
			; dBfs[401] @ 3208
	.bits		0x25,8
			; dBfs[402] @ 3216
	.bits		0x25,8
			; dBfs[403] @ 3224
	.bits		0x25,8
			; dBfs[404] @ 3232
	.bits		0x25,8
			; dBfs[405] @ 3240
	.bits		0x25,8
			; dBfs[406] @ 3248
	.bits		0x25,8
			; dBfs[407] @ 3256
	.bits		0x25,8
			; dBfs[408] @ 3264
	.bits		0x25,8
			; dBfs[409] @ 3272
	.bits		0x24,8
			; dBfs[410] @ 3280
	.bits		0x24,8
			; dBfs[411] @ 3288
	.bits		0x24,8
			; dBfs[412] @ 3296
	.bits		0x24,8
			; dBfs[413] @ 3304
	.bits		0x24,8
			; dBfs[414] @ 3312
	.bits		0x24,8
			; dBfs[415] @ 3320
	.bits		0x24,8
			; dBfs[416] @ 3328
	.bits		0x24,8
			; dBfs[417] @ 3336
	.bits		0x24,8
			; dBfs[418] @ 3344
	.bits		0x24,8
			; dBfs[419] @ 3352
	.bits		0x24,8
			; dBfs[420] @ 3360
	.bits		0x24,8
			; dBfs[421] @ 3368
	.bits		0x24,8
			; dBfs[422] @ 3376
	.bits		0x24,8
			; dBfs[423] @ 3384
	.bits		0x24,8
			; dBfs[424] @ 3392
	.bits		0x24,8
			; dBfs[425] @ 3400
	.bits		0x24,8
			; dBfs[426] @ 3408
	.bits		0x24,8
			; dBfs[427] @ 3416
	.bits		0x24,8
			; dBfs[428] @ 3424
	.bits		0x24,8
			; dBfs[429] @ 3432
	.bits		0x24,8
			; dBfs[430] @ 3440
	.bits		0x23,8
			; dBfs[431] @ 3448
	.bits		0x23,8
			; dBfs[432] @ 3456
	.bits		0x23,8
			; dBfs[433] @ 3464
	.bits		0x23,8
			; dBfs[434] @ 3472
	.bits		0x23,8
			; dBfs[435] @ 3480
	.bits		0x23,8
			; dBfs[436] @ 3488
	.bits		0x23,8
			; dBfs[437] @ 3496
	.bits		0x23,8
			; dBfs[438] @ 3504
	.bits		0x23,8
			; dBfs[439] @ 3512
	.bits		0x23,8
			; dBfs[440] @ 3520
	.bits		0x23,8
			; dBfs[441] @ 3528
	.bits		0x23,8
			; dBfs[442] @ 3536
	.bits		0x23,8
			; dBfs[443] @ 3544
	.bits		0x23,8
			; dBfs[444] @ 3552
	.bits		0x23,8
			; dBfs[445] @ 3560
	.bits		0x23,8
			; dBfs[446] @ 3568
	.bits		0x23,8
			; dBfs[447] @ 3576
	.bits		0x23,8
			; dBfs[448] @ 3584
	.bits		0x23,8
			; dBfs[449] @ 3592
	.bits		0x23,8
			; dBfs[450] @ 3600
	.bits		0x23,8
			; dBfs[451] @ 3608
	.bits		0x22,8
			; dBfs[452] @ 3616
	.bits		0x22,8
			; dBfs[453] @ 3624
	.bits		0x22,8
			; dBfs[454] @ 3632
	.bits		0x22,8
			; dBfs[455] @ 3640
	.bits		0x22,8
			; dBfs[456] @ 3648
	.bits		0x22,8
			; dBfs[457] @ 3656
	.bits		0x22,8
			; dBfs[458] @ 3664
	.bits		0x22,8
			; dBfs[459] @ 3672
	.bits		0x22,8
			; dBfs[460] @ 3680
	.bits		0x22,8
			; dBfs[461] @ 3688
	.bits		0x22,8
			; dBfs[462] @ 3696
	.bits		0x22,8
			; dBfs[463] @ 3704
	.bits		0x22,8
			; dBfs[464] @ 3712
	.bits		0x22,8
			; dBfs[465] @ 3720
	.bits		0x22,8
			; dBfs[466] @ 3728
	.bits		0x22,8
			; dBfs[467] @ 3736
	.bits		0x22,8
			; dBfs[468] @ 3744
	.bits		0x22,8
			; dBfs[469] @ 3752
	.bits		0x22,8
			; dBfs[470] @ 3760
	.bits		0x22,8
			; dBfs[471] @ 3768
	.bits		0x22,8
			; dBfs[472] @ 3776
	.bits		0x22,8
			; dBfs[473] @ 3784
	.bits		0x22,8
			; dBfs[474] @ 3792
	.bits		0x21,8
			; dBfs[475] @ 3800
	.bits		0x21,8
			; dBfs[476] @ 3808
	.bits		0x21,8
			; dBfs[477] @ 3816
	.bits		0x21,8
			; dBfs[478] @ 3824
	.bits		0x21,8
			; dBfs[479] @ 3832
	.bits		0x21,8
			; dBfs[480] @ 3840
	.bits		0x21,8
			; dBfs[481] @ 3848
	.bits		0x21,8
			; dBfs[482] @ 3856
	.bits		0x21,8
			; dBfs[483] @ 3864
	.bits		0x21,8
			; dBfs[484] @ 3872
	.bits		0x21,8
			; dBfs[485] @ 3880
	.bits		0x21,8
			; dBfs[486] @ 3888
	.bits		0x21,8
			; dBfs[487] @ 3896
	.bits		0x21,8
			; dBfs[488] @ 3904
	.bits		0x21,8
			; dBfs[489] @ 3912
	.bits		0x21,8
			; dBfs[490] @ 3920
	.bits		0x21,8
			; dBfs[491] @ 3928
	.bits		0x21,8
			; dBfs[492] @ 3936
	.bits		0x21,8
			; dBfs[493] @ 3944
	.bits		0x21,8
			; dBfs[494] @ 3952
	.bits		0x21,8
			; dBfs[495] @ 3960
	.bits		0x21,8
			; dBfs[496] @ 3968
	.bits		0x21,8
			; dBfs[497] @ 3976
	.bits		0x21,8
			; dBfs[498] @ 3984
	.bits		0x20,8
			; dBfs[499] @ 3992
	.bits		0x20,8
			; dBfs[500] @ 4000
	.bits		0x20,8
			; dBfs[501] @ 4008
	.bits		0x20,8
			; dBfs[502] @ 4016
	.bits		0x20,8
			; dBfs[503] @ 4024
	.bits		0x20,8
			; dBfs[504] @ 4032
	.bits		0x20,8
			; dBfs[505] @ 4040
	.bits		0x20,8
			; dBfs[506] @ 4048
	.bits		0x20,8
			; dBfs[507] @ 4056
	.bits		0x20,8
			; dBfs[508] @ 4064
	.bits		0x20,8
			; dBfs[509] @ 4072
	.bits		0x20,8
			; dBfs[510] @ 4080
	.bits		0x20,8
			; dBfs[511] @ 4088

$C$DW$23	.dwtag  DW_TAG_variable
	.dwattr $C$DW$23, DW_AT_name("dBfs")
	.dwattr $C$DW$23, DW_AT_TI_symbol_name("dBfs")
	.dwattr $C$DW$23, DW_AT_location[DW_OP_addr dBfs]
	.dwattr $C$DW$23, DW_AT_type(*$C$DW$T$86)
	.dwattr $C$DW$23, DW_AT_external
	.dwattr $C$DW$23, DW_AT_decl_file("../ST7735.c")
	.dwattr $C$DW$23, DW_AT_decl_line(0x57b)
	.dwattr $C$DW$23, DW_AT_decl_column(0x0f)

;	C:\ti\ccs910\ccs\tools\compiler\ti-cgt-arm_18.12.2.LTS\bin\armacpia.exe -@C:\\Users\\jorda\\AppData\\Local\\Temp\\{1B0CBDF2-8CDE-4B3A-AB94-1CD5E4DE39F3} 
	.sect	".text"
	.clink
	.thumbfunc writecommand
	.thumb

$C$DW$24	.dwtag  DW_TAG_subprogram
	.dwattr $C$DW$24, DW_AT_name("writecommand")
	.dwattr $C$DW$24, DW_AT_low_pc(writecommand)
	.dwattr $C$DW$24, DW_AT_high_pc(0x00)
	.dwattr $C$DW$24, DW_AT_TI_symbol_name("writecommand")
	.dwattr $C$DW$24, DW_AT_TI_begin_file("../ST7735.c")
	.dwattr $C$DW$24, DW_AT_TI_begin_line(0x1ff)
	.dwattr $C$DW$24, DW_AT_TI_begin_column(0x0d)
	.dwattr $C$DW$24, DW_AT_decl_file("../ST7735.c")
	.dwattr $C$DW$24, DW_AT_decl_line(0x1ff)
	.dwattr $C$DW$24, DW_AT_decl_column(0x0d)
	.dwattr $C$DW$24, DW_AT_TI_max_frame_size(0x08)
	.dwpsn	file "../ST7735.c",line 511,column 37,is_stmt,address writecommand,isa 1

	.dwfde $C$DW$CIE, writecommand
$C$DW$25	.dwtag  DW_TAG_formal_parameter
	.dwattr $C$DW$25, DW_AT_name("c")
	.dwattr $C$DW$25, DW_AT_TI_symbol_name("c")
	.dwattr $C$DW$25, DW_AT_type(*$C$DW$T$10)
	.dwattr $C$DW$25, DW_AT_location[DW_OP_reg0]


;*****************************************************************************
;* FUNCTION NAME: writecommand                                               *
;*                                                                           *
;*   Regs Modified     : A1,A2,SP,SR                                         *
;*   Regs Used         : A1,A2,SP,LR,SR                                      *
;*   Local Frame Size  : 0 Args + 4 Auto + 0 Save = 4 byte                   *
;*****************************************************************************
writecommand:
;* --------------------------------------------------------------------------*
	.dwcfi	cfa_offset, 0
        SUB       SP, SP, #8            ; [DPU_V7M3_PIPE] 
	.dwcfi	cfa_offset, 8
$C$DW$26	.dwtag  DW_TAG_variable
	.dwattr $C$DW$26, DW_AT_name("c")
	.dwattr $C$DW$26, DW_AT_TI_symbol_name("c")
	.dwattr $C$DW$26, DW_AT_type(*$C$DW$T$27)
	.dwattr $C$DW$26, DW_AT_location[DW_OP_breg13 0]

;----------------------------------------------------------------------
; 511 | void static writecommand(uint8_t c) {                                  
; 512 | // wait until SSI0 not busy/transmit FIFO empty                        
;----------------------------------------------------------------------
        STRB      A1, [SP, #0]          ; [DPU_V7M3_PIPE] |511| 
	.dwpsn	file "../ST7735.c",line 513,column 3,is_stmt,isa 1
;----------------------------------------------------------------------
; 513 | while((SSI0_SR_R&SSI_SR_BSY)==SSI_SR_BSY){};                           
;----------------------------------------------------------------------
;* --------------------------------------------------------------------------*
;*   BEGIN LOOP ||$C$L1||
;*
;*   Loop source line                : 513
;*   Loop closing brace source line  : 513
;*   Known Minimum Trip Count        : 1
;*   Known Maximum Trip Count        : 4294967295
;*   Known Max Trip Count Factor     : 1
;* --------------------------------------------------------------------------*
||$C$L1||:    
	.dwpsn	file "../ST7735.c",line 513,column 9,is_stmt,isa 1
        LDR       A1, $C$CON1           ; [DPU_V7M3_PIPE] |513| 
        LDR       A1, [A1, #0]          ; [DPU_V7M3_PIPE] |513| 
        LSRS      A1, A1, #5            ; [DPU_V7M3_PIPE] |513| 
        BCS       ||$C$L1||             ; [DPU_V7M3_PIPE] |513| 
        ; BRANCHCC OCCURS {||$C$L1||}    ; [] |513| 
;* --------------------------------------------------------------------------*
	.dwpsn	file "../ST7735.c",line 514,column 3,is_stmt,isa 1
;----------------------------------------------------------------------
; 514 | DC = DC_COMMAND;                                                       
;----------------------------------------------------------------------
        LDR       A2, $C$CON2           ; [DPU_V7M3_PIPE] |514| 
        MOVS      A1, #0                ; [DPU_V7M3_PIPE] |514| 
        STR       A1, [A2, #0]          ; [DPU_V7M3_PIPE] |514| 
	.dwpsn	file "../ST7735.c",line 515,column 3,is_stmt,isa 1
;----------------------------------------------------------------------
; 515 | SSI0_DR_R = c;                        // data out                      
; 516 |                                       // wait until SSI0 not busy/trans
;     | mit FIFO empty                                                         
;----------------------------------------------------------------------
        LDR       A2, $C$CON3           ; [DPU_V7M3_PIPE] |515| 
        LDRB      A1, [SP, #0]          ; [DPU_V7M3_PIPE] |515| 
        STR       A1, [A2, #0]          ; [DPU_V7M3_PIPE] |515| 
	.dwpsn	file "../ST7735.c",line 517,column 3,is_stmt,isa 1
;----------------------------------------------------------------------
; 517 | while((SSI0_SR_R&SSI_SR_BSY)==SSI_SR_BSY){};                           
;----------------------------------------------------------------------
;* --------------------------------------------------------------------------*
;*   BEGIN LOOP ||$C$L2||
;*
;*   Loop source line                : 517
;*   Loop closing brace source line  : 517
;*   Known Minimum Trip Count        : 1
;*   Known Maximum Trip Count        : 4294967295
;*   Known Max Trip Count Factor     : 1
;* --------------------------------------------------------------------------*
||$C$L2||:    
	.dwpsn	file "../ST7735.c",line 517,column 9,is_stmt,isa 1
        LDR       A1, $C$CON1           ; [DPU_V7M3_PIPE] |517| 
        LDR       A1, [A1, #0]          ; [DPU_V7M3_PIPE] |517| 
        LSRS      A1, A1, #5            ; [DPU_V7M3_PIPE] |517| 
        BCS       ||$C$L2||             ; [DPU_V7M3_PIPE] |517| 
        ; BRANCHCC OCCURS {||$C$L2||}    ; [] |517| 
;* --------------------------------------------------------------------------*
	.dwpsn	file "../ST7735.c",line 518,column 1,is_stmt,isa 1
        ADD       SP, SP, #8            ; [DPU_V7M3_PIPE] 
	.dwcfi	cfa_offset, 0
$C$DW$27	.dwtag  DW_TAG_TI_branch
	.dwattr $C$DW$27, DW_AT_low_pc(0x00)
	.dwattr $C$DW$27, DW_AT_TI_return

        BX        LR                    ; [DPU_V7M3_PIPE] 
        ; BRANCH OCCURS                  ; [] 
	.dwattr $C$DW$24, DW_AT_TI_end_file("../ST7735.c")
	.dwattr $C$DW$24, DW_AT_TI_end_line(0x206)
	.dwattr $C$DW$24, DW_AT_TI_end_column(0x01)
	.dwendentry
	.dwendtag $C$DW$24

	.sect	".text"
	.clink
	.thumbfunc writedata
	.thumb

$C$DW$28	.dwtag  DW_TAG_subprogram
	.dwattr $C$DW$28, DW_AT_name("writedata")
	.dwattr $C$DW$28, DW_AT_low_pc(writedata)
	.dwattr $C$DW$28, DW_AT_high_pc(0x00)
	.dwattr $C$DW$28, DW_AT_TI_symbol_name("writedata")
	.dwattr $C$DW$28, DW_AT_TI_begin_file("../ST7735.c")
	.dwattr $C$DW$28, DW_AT_TI_begin_line(0x209)
	.dwattr $C$DW$28, DW_AT_TI_begin_column(0x0d)
	.dwattr $C$DW$28, DW_AT_decl_file("../ST7735.c")
	.dwattr $C$DW$28, DW_AT_decl_line(0x209)
	.dwattr $C$DW$28, DW_AT_decl_column(0x0d)
	.dwattr $C$DW$28, DW_AT_TI_max_frame_size(0x08)
	.dwpsn	file "../ST7735.c",line 521,column 34,is_stmt,address writedata,isa 1

	.dwfde $C$DW$CIE, writedata
$C$DW$29	.dwtag  DW_TAG_formal_parameter
	.dwattr $C$DW$29, DW_AT_name("c")
	.dwattr $C$DW$29, DW_AT_TI_symbol_name("c")
	.dwattr $C$DW$29, DW_AT_type(*$C$DW$T$10)
	.dwattr $C$DW$29, DW_AT_location[DW_OP_reg0]


;*****************************************************************************
;* FUNCTION NAME: writedata                                                  *
;*                                                                           *
;*   Regs Modified     : A1,A2,SP,SR                                         *
;*   Regs Used         : A1,A2,SP,LR,SR                                      *
;*   Local Frame Size  : 0 Args + 4 Auto + 0 Save = 4 byte                   *
;*****************************************************************************
writedata:
;* --------------------------------------------------------------------------*
	.dwcfi	cfa_offset, 0
        SUB       SP, SP, #8            ; [DPU_V7M3_PIPE] 
	.dwcfi	cfa_offset, 8
$C$DW$30	.dwtag  DW_TAG_variable
	.dwattr $C$DW$30, DW_AT_name("c")
	.dwattr $C$DW$30, DW_AT_TI_symbol_name("c")
	.dwattr $C$DW$30, DW_AT_type(*$C$DW$T$27)
	.dwattr $C$DW$30, DW_AT_location[DW_OP_breg13 0]

;----------------------------------------------------------------------
; 521 | void static writedata(uint8_t c) {                                     
;----------------------------------------------------------------------
        STRB      A1, [SP, #0]          ; [DPU_V7M3_PIPE] |521| 
	.dwpsn	file "../ST7735.c",line 522,column 3,is_stmt,isa 1
;----------------------------------------------------------------------
; 522 | while((SSI0_SR_R&SSI_SR_TNF)==0){};   // wait until transmit FIFO not f
;     | ull                                                                    
;----------------------------------------------------------------------
;* --------------------------------------------------------------------------*
;*   BEGIN LOOP ||$C$L3||
;*
;*   Loop source line                : 522
;*   Loop closing brace source line  : 522
;*   Known Minimum Trip Count        : 1
;*   Known Maximum Trip Count        : 4294967295
;*   Known Max Trip Count Factor     : 1
;* --------------------------------------------------------------------------*
||$C$L3||:    
	.dwpsn	file "../ST7735.c",line 522,column 9,is_stmt,isa 1
        LDR       A1, $C$CON1           ; [DPU_V7M3_PIPE] |522| 
        LDR       A1, [A1, #0]          ; [DPU_V7M3_PIPE] |522| 
        LSRS      A1, A1, #2            ; [DPU_V7M3_PIPE] |522| 
        BCC       ||$C$L3||             ; [DPU_V7M3_PIPE] |522| 
        ; BRANCHCC OCCURS {||$C$L3||}    ; [] |522| 
;* --------------------------------------------------------------------------*
	.dwpsn	file "../ST7735.c",line 523,column 3,is_stmt,isa 1
;----------------------------------------------------------------------
; 523 | DC = DC_DATA;                                                          
;----------------------------------------------------------------------
        LDR       A2, $C$CON2           ; [DPU_V7M3_PIPE] |523| 
        MOVS      A1, #64               ; [DPU_V7M3_PIPE] |523| 
        STR       A1, [A2, #0]          ; [DPU_V7M3_PIPE] |523| 
	.dwpsn	file "../ST7735.c",line 524,column 3,is_stmt,isa 1
;----------------------------------------------------------------------
; 524 | SSI0_DR_R = c;                        // data out                      
;----------------------------------------------------------------------
        LDR       A2, $C$CON3           ; [DPU_V7M3_PIPE] |524| 
        LDRB      A1, [SP, #0]          ; [DPU_V7M3_PIPE] |524| 
        STR       A1, [A2, #0]          ; [DPU_V7M3_PIPE] |524| 
	.dwpsn	file "../ST7735.c",line 525,column 1,is_stmt,isa 1
        ADD       SP, SP, #8            ; [DPU_V7M3_PIPE] 
	.dwcfi	cfa_offset, 0
$C$DW$31	.dwtag  DW_TAG_TI_branch
	.dwattr $C$DW$31, DW_AT_low_pc(0x00)
	.dwattr $C$DW$31, DW_AT_TI_return

        BX        LR                    ; [DPU_V7M3_PIPE] 
        ; BRANCH OCCURS                  ; [] 
	.dwattr $C$DW$28, DW_AT_TI_end_file("../ST7735.c")
	.dwattr $C$DW$28, DW_AT_TI_end_line(0x20d)
	.dwattr $C$DW$28, DW_AT_TI_end_column(0x01)
	.dwendentry
	.dwendtag $C$DW$28

	.sect	".text"
	.clink
	.thumbfunc Delay1ms
	.thumb
	.global	Delay1ms

$C$DW$32	.dwtag  DW_TAG_subprogram
	.dwattr $C$DW$32, DW_AT_name("Delay1ms")
	.dwattr $C$DW$32, DW_AT_low_pc(Delay1ms)
	.dwattr $C$DW$32, DW_AT_high_pc(0x00)
	.dwattr $C$DW$32, DW_AT_TI_symbol_name("Delay1ms")
	.dwattr $C$DW$32, DW_AT_external
	.dwattr $C$DW$32, DW_AT_TI_begin_file("../ST7735.c")
	.dwattr $C$DW$32, DW_AT_TI_begin_line(0x212)
	.dwattr $C$DW$32, DW_AT_TI_begin_column(0x06)
	.dwattr $C$DW$32, DW_AT_decl_file("../ST7735.c")
	.dwattr $C$DW$32, DW_AT_decl_line(0x212)
	.dwattr $C$DW$32, DW_AT_decl_column(0x06)
	.dwattr $C$DW$32, DW_AT_TI_max_frame_size(0x08)
	.dwpsn	file "../ST7735.c",line 530,column 26,is_stmt,address Delay1ms,isa 1

	.dwfde $C$DW$CIE, Delay1ms
$C$DW$33	.dwtag  DW_TAG_formal_parameter
	.dwattr $C$DW$33, DW_AT_name("n")
	.dwattr $C$DW$33, DW_AT_TI_symbol_name("n")
	.dwattr $C$DW$33, DW_AT_type(*$C$DW$T$31)
	.dwattr $C$DW$33, DW_AT_location[DW_OP_reg0]


;*****************************************************************************
;* FUNCTION NAME: Delay1ms                                                   *
;*                                                                           *
;*   Regs Modified     : A1,SP,SR                                            *
;*   Regs Used         : A1,SP,LR,SR                                         *
;*   Local Frame Size  : 0 Args + 8 Auto + 0 Save = 8 byte                   *
;*****************************************************************************
Delay1ms:
;* --------------------------------------------------------------------------*
	.dwcfi	cfa_offset, 0
        SUB       SP, SP, #8            ; [DPU_V7M3_PIPE] 
	.dwcfi	cfa_offset, 8
$C$DW$34	.dwtag  DW_TAG_variable
	.dwattr $C$DW$34, DW_AT_name("n")
	.dwattr $C$DW$34, DW_AT_TI_symbol_name("n")
	.dwattr $C$DW$34, DW_AT_type(*$C$DW$T$31)
	.dwattr $C$DW$34, DW_AT_location[DW_OP_breg13 0]

$C$DW$35	.dwtag  DW_TAG_variable
	.dwattr $C$DW$35, DW_AT_name("time")
	.dwattr $C$DW$35, DW_AT_TI_symbol_name("time")
	.dwattr $C$DW$35, DW_AT_type(*$C$DW$T$157)
	.dwattr $C$DW$35, DW_AT_location[DW_OP_breg13 4]

;----------------------------------------------------------------------
; 530 | void Delay1ms(uint32_t n){uint32_t volatile time;                      
;----------------------------------------------------------------------
        STR       A1, [SP, #0]          ; [DPU_V7M3_PIPE] |530| 
	.dwpsn	file "../ST7735.c",line 531,column 3,is_stmt,isa 1
;----------------------------------------------------------------------
; 531 | while(n){                                                              
;----------------------------------------------------------------------
        LDR       A1, [SP, #0]          ; [DPU_V7M3_PIPE] |531| 
        CBZ       A1, ||$C$L7||         ; [] 
        ; BRANCHCC OCCURS {||$C$L7||}    ; [] |531| 
;* --------------------------------------------------------------------------*
;*   BEGIN LOOP ||$C$L4||
;*
;*   Loop source line                : 531
;*   Loop closing brace source line  : 537
;*   Known Minimum Trip Count        : 1
;*   Known Maximum Trip Count        : 4294967295
;*   Known Max Trip Count Factor     : 1
;* --------------------------------------------------------------------------*
||$C$L4||:    
	.dwpsn	file "../ST7735.c",line 532,column 5,is_stmt,isa 1
;----------------------------------------------------------------------
; 532 | time = 72724*2/91;  // 1msec, tuned at 80 MHz                          
;----------------------------------------------------------------------
        MOV       A1, #1598             ; [DPU_V7M3_PIPE] |532| 
        STR       A1, [SP, #4]          ; [DPU_V7M3_PIPE] |532| 
	.dwpsn	file "../ST7735.c",line 533,column 5,is_stmt,isa 1
;----------------------------------------------------------------------
; 533 | while(time){                                                           
;----------------------------------------------------------------------
        LDR       A1, [SP, #4]          ; [DPU_V7M3_PIPE] |533| 
        CBZ       A1, ||$C$L6||         ; [] 
        ; BRANCHCC OCCURS {||$C$L6||}    ; [] |533| 
;* --------------------------------------------------------------------------*
;*   BEGIN LOOP ||$C$L5||
;*
;*   Loop source line                : 533
;*   Loop closing brace source line  : 535
;*   Known Minimum Trip Count        : 1
;*   Known Maximum Trip Count        : 4294967295
;*   Known Max Trip Count Factor     : 1
;* --------------------------------------------------------------------------*
||$C$L5||:    
	.dwpsn	file "../ST7735.c",line 534,column 7,is_stmt,isa 1
;----------------------------------------------------------------------
; 534 | time--;                                                                
;----------------------------------------------------------------------
        LDR       A1, [SP, #4]          ; [DPU_V7M3_PIPE] |534| 
        SUBS      A1, A1, #1            ; [DPU_V7M3_PIPE] |534| 
        STR       A1, [SP, #4]          ; [DPU_V7M3_PIPE] |534| 
	.dwpsn	file "../ST7735.c",line 533,column 5,is_stmt,isa 1
        LDR       A1, [SP, #4]          ; [DPU_V7M3_PIPE] |533| 
        CMP       A1, #0                ; [DPU_V7M3_PIPE] |533| 
        BNE       ||$C$L5||             ; [DPU_V7M3_PIPE] |533| 
        ; BRANCHCC OCCURS {||$C$L5||}    ; [] |533| 
;* --------------------------------------------------------------------------*
||$C$L6||:    
	.dwpsn	file "../ST7735.c",line 536,column 5,is_stmt,isa 1
;----------------------------------------------------------------------
; 536 | n--;                                                                   
;----------------------------------------------------------------------
        LDR       A1, [SP, #0]          ; [DPU_V7M3_PIPE] |536| 
        SUBS      A1, A1, #1            ; [DPU_V7M3_PIPE] |536| 
        STR       A1, [SP, #0]          ; [DPU_V7M3_PIPE] |536| 
	.dwpsn	file "../ST7735.c",line 531,column 3,is_stmt,isa 1
        LDR       A1, [SP, #0]          ; [DPU_V7M3_PIPE] |531| 
        CMP       A1, #0                ; [DPU_V7M3_PIPE] |531| 
        BNE       ||$C$L4||             ; [DPU_V7M3_PIPE] |531| 
        ; BRANCHCC OCCURS {||$C$L4||}    ; [] |531| 
;* --------------------------------------------------------------------------*
	.dwpsn	file "../ST7735.c",line 538,column 1,is_stmt,isa 1
;* --------------------------------------------------------------------------*
||$C$L7||:    
        ADD       SP, SP, #8            ; [DPU_V7M3_PIPE] 
	.dwcfi	cfa_offset, 0
$C$DW$36	.dwtag  DW_TAG_TI_branch
	.dwattr $C$DW$36, DW_AT_low_pc(0x00)
	.dwattr $C$DW$36, DW_AT_TI_return

        BX        LR                    ; [DPU_V7M3_PIPE] 
        ; BRANCH OCCURS                  ; [] 
	.dwattr $C$DW$32, DW_AT_TI_end_file("../ST7735.c")
	.dwattr $C$DW$32, DW_AT_TI_end_line(0x21a)
	.dwattr $C$DW$32, DW_AT_TI_end_column(0x01)
	.dwendentry
	.dwendtag $C$DW$32

	.sect	".text"
	.clink
	.thumbfunc commandList
	.thumb

$C$DW$37	.dwtag  DW_TAG_subprogram
	.dwattr $C$DW$37, DW_AT_name("commandList")
	.dwattr $C$DW$37, DW_AT_low_pc(commandList)
	.dwattr $C$DW$37, DW_AT_high_pc(0x00)
	.dwattr $C$DW$37, DW_AT_TI_symbol_name("commandList")
	.dwattr $C$DW$37, DW_AT_TI_begin_file("../ST7735.c")
	.dwattr $C$DW$37, DW_AT_TI_begin_line(0x2a9)
	.dwattr $C$DW$37, DW_AT_TI_begin_column(0x0d)
	.dwattr $C$DW$37, DW_AT_decl_file("../ST7735.c")
	.dwattr $C$DW$37, DW_AT_decl_line(0x2a9)
	.dwattr $C$DW$37, DW_AT_decl_column(0x0d)
	.dwattr $C$DW$37, DW_AT_TI_max_frame_size(0x10)
	.dwpsn	file "../ST7735.c",line 681,column 46,is_stmt,address commandList,isa 1

	.dwfde $C$DW$CIE, commandList
$C$DW$38	.dwtag  DW_TAG_formal_parameter
	.dwattr $C$DW$38, DW_AT_name("addr")
	.dwattr $C$DW$38, DW_AT_TI_symbol_name("addr")
	.dwattr $C$DW$38, DW_AT_type(*$C$DW$T$35)
	.dwattr $C$DW$38, DW_AT_location[DW_OP_reg0]


;*****************************************************************************
;* FUNCTION NAME: commandList                                                *
;*                                                                           *
;*   Regs Modified     : A1,A2,A3,A4,SP,LR,SR,FPEXC,FPSCR                    *
;*   Regs Used         : A1,A2,A3,A4,SP,LR,SR,FPEXC,FPSCR                    *
;*   Local Frame Size  : 0 Args + 8 Auto + 4 Save = 12 byte                  *
;*****************************************************************************
commandList:
;* --------------------------------------------------------------------------*
	.dwcfi	cfa_offset, 0
        PUSH      {A2, A3, A4, LR}      ; [DPU_V7M3_PIPE] 
	.dwcfi	cfa_offset, 16
	.dwcfi	save_reg_to_mem, 14, -4
	.dwcfi	save_reg_to_mem, 3, -8
	.dwcfi	save_reg_to_mem, 2, -12
	.dwcfi	save_reg_to_mem, 1, -16
$C$DW$39	.dwtag  DW_TAG_variable
	.dwattr $C$DW$39, DW_AT_name("addr")
	.dwattr $C$DW$39, DW_AT_TI_symbol_name("addr")
	.dwattr $C$DW$39, DW_AT_type(*$C$DW$T$35)
	.dwattr $C$DW$39, DW_AT_location[DW_OP_breg13 0]

$C$DW$40	.dwtag  DW_TAG_variable
	.dwattr $C$DW$40, DW_AT_name("ms")
	.dwattr $C$DW$40, DW_AT_TI_symbol_name("ms")
	.dwattr $C$DW$40, DW_AT_type(*$C$DW$T$46)
	.dwattr $C$DW$40, DW_AT_location[DW_OP_breg13 4]

$C$DW$41	.dwtag  DW_TAG_variable
	.dwattr $C$DW$41, DW_AT_name("numCommands")
	.dwattr $C$DW$41, DW_AT_TI_symbol_name("numCommands")
	.dwattr $C$DW$41, DW_AT_type(*$C$DW$T$27)
	.dwattr $C$DW$41, DW_AT_location[DW_OP_breg13 6]

$C$DW$42	.dwtag  DW_TAG_variable
	.dwattr $C$DW$42, DW_AT_name("numArgs")
	.dwattr $C$DW$42, DW_AT_TI_symbol_name("numArgs")
	.dwattr $C$DW$42, DW_AT_type(*$C$DW$T$27)
	.dwattr $C$DW$42, DW_AT_location[DW_OP_breg13 7]

;----------------------------------------------------------------------
; 681 | void static commandList(const uint8_t *addr) {                         
; 683 | uint8_t numCommands, numArgs;                                          
; 684 | uint16_t ms;                                                           
;----------------------------------------------------------------------
        STR       A1, [SP, #0]          ; [DPU_V7M3_PIPE] |681| 
	.dwpsn	file "../ST7735.c",line 686,column 3,is_stmt,isa 1
;----------------------------------------------------------------------
; 686 | numCommands = *(addr++);               // Number of commands to follow 
;----------------------------------------------------------------------
        LDR       A1, [SP, #0]          ; [DPU_V7M3_PIPE] |686| 
        LDRB      A2, [A1], #1          ; [DPU_V7M3_PIPE] |686| 
        STRB      A2, [SP, #6]          ; [DPU_V7M3_PIPE] |686| 
        STR       A1, [SP, #0]          ; [DPU_V7M3_PIPE] |686| 
	.dwpsn	file "../ST7735.c",line 687,column 3,is_stmt,isa 1
;----------------------------------------------------------------------
; 687 | while(numCommands--) {                 // For each command...          
;----------------------------------------------------------------------
        B         ||$C$L12||            ; [DPU_V7M3_PIPE] |687| 
        ; BRANCH OCCURS {||$C$L12||}     ; [] |687| 
;* --------------------------------------------------------------------------*
||$C$L8||:    
	.dwpsn	file "../ST7735.c",line 688,column 5,is_stmt,isa 1
;----------------------------------------------------------------------
; 688 | writecommand(*(addr++));             //   Read, issue command          
;----------------------------------------------------------------------
        LDR       A2, [SP, #0]          ; [DPU_V7M3_PIPE] |688| 
        LDRB      A1, [A2], #1          ; [DPU_V7M3_PIPE] |688| 
        STR       A2, [SP, #0]          ; [DPU_V7M3_PIPE] |688| 
$C$DW$43	.dwtag  DW_TAG_TI_branch
	.dwattr $C$DW$43, DW_AT_low_pc(0x00)
	.dwattr $C$DW$43, DW_AT_name("writecommand")
	.dwattr $C$DW$43, DW_AT_TI_call

        BL        writecommand          ; [DPU_V7M3_PIPE] |688| 
        ; CALL OCCURS {writecommand }    ; [] |688| 
	.dwpsn	file "../ST7735.c",line 689,column 5,is_stmt,isa 1
;----------------------------------------------------------------------
; 689 | numArgs  = *(addr++);                //   Number of args to follow     
;----------------------------------------------------------------------
        LDR       A1, [SP, #0]          ; [DPU_V7M3_PIPE] |689| 
        LDRB      A2, [A1], #1          ; [DPU_V7M3_PIPE] |689| 
        STR       A1, [SP, #0]          ; [DPU_V7M3_PIPE] |689| 
        STRB      A2, [SP, #7]          ; [DPU_V7M3_PIPE] |689| 
	.dwpsn	file "../ST7735.c",line 690,column 5,is_stmt,isa 1
;----------------------------------------------------------------------
; 690 | ms       = numArgs & DELAY;          //   If hibit set, delay follows a
;     | rgs                                                                    
;----------------------------------------------------------------------
        LDRB      A1, [SP, #7]          ; [DPU_V7M3_PIPE] |690| 
        AND       A1, A1, #128          ; [DPU_V7M3_PIPE] |690| 
        STRH      A1, [SP, #4]          ; [DPU_V7M3_PIPE] |690| 
	.dwpsn	file "../ST7735.c",line 691,column 5,is_stmt,isa 1
;----------------------------------------------------------------------
; 691 | numArgs &= ~DELAY;                   //   Mask out delay bit           
;----------------------------------------------------------------------
        LDRB      A1, [SP, #7]          ; [DPU_V7M3_PIPE] |691| 
        BIC       A1, A1, #128          ; [DPU_V7M3_PIPE] |691| 
        STRB      A1, [SP, #7]          ; [DPU_V7M3_PIPE] |691| 
	.dwpsn	file "../ST7735.c",line 692,column 5,is_stmt,isa 1
;----------------------------------------------------------------------
; 692 | while(numArgs--) {                   //   For each argument...         
;----------------------------------------------------------------------
        B         ||$C$L10||            ; [DPU_V7M3_PIPE] |692| 
        ; BRANCH OCCURS {||$C$L10||}     ; [] |692| 
;* --------------------------------------------------------------------------*
||$C$L9||:    
	.dwpsn	file "../ST7735.c",line 693,column 7,is_stmt,isa 1
;----------------------------------------------------------------------
; 693 | writedata(*(addr++));              //     Read, issue argument         
;----------------------------------------------------------------------
        LDR       A2, [SP, #0]          ; [DPU_V7M3_PIPE] |693| 
        LDRB      A1, [A2], #1          ; [DPU_V7M3_PIPE] |693| 
        STR       A2, [SP, #0]          ; [DPU_V7M3_PIPE] |693| 
$C$DW$44	.dwtag  DW_TAG_TI_branch
	.dwattr $C$DW$44, DW_AT_low_pc(0x00)
	.dwattr $C$DW$44, DW_AT_name("writedata")
	.dwattr $C$DW$44, DW_AT_TI_call

        BL        writedata             ; [DPU_V7M3_PIPE] |693| 
        ; CALL OCCURS {writedata }       ; [] |693| 
;* --------------------------------------------------------------------------*
;*   BEGIN LOOP ||$C$L10||
;* --------------------------------------------------------------------------*
||$C$L10||:    
	.dwpsn	file "../ST7735.c",line 692,column 5,is_stmt,isa 1
        LDRB      A1, [SP, #7]          ; [DPU_V7M3_PIPE] |692| 
        SUBS      A2, A1, #1            ; [DPU_V7M3_PIPE] |692| 
        CMP       A1, #0                ; [DPU_V7M3_PIPE] |692| 
        STRB      A2, [SP, #7]          ; [DPU_V7M3_PIPE] |692| 
        BNE       ||$C$L9||             ; [DPU_V7M3_PIPE] |692| 
        ; BRANCHCC OCCURS {||$C$L9||}    ; [] |692| 
;* --------------------------------------------------------------------------*
	.dwpsn	file "../ST7735.c",line 696,column 5,is_stmt,isa 1
;----------------------------------------------------------------------
; 696 | if(ms) {                                                               
;----------------------------------------------------------------------
        LDRH      A1, [SP, #4]          ; [DPU_V7M3_PIPE] |696| 
        CBZ       A1, ||$C$L12||        ; [] 
        ; BRANCHCC OCCURS {||$C$L12||}   ; [] |696| 
;* --------------------------------------------------------------------------*
	.dwpsn	file "../ST7735.c",line 697,column 7,is_stmt,isa 1
;----------------------------------------------------------------------
; 697 | ms = *(addr++);             // Read post-command delay time (ms)       
;----------------------------------------------------------------------
        LDR       A1, [SP, #0]          ; [DPU_V7M3_PIPE] |697| 
        LDRB      A2, [A1], #1          ; [DPU_V7M3_PIPE] |697| 
        STR       A1, [SP, #0]          ; [DPU_V7M3_PIPE] |697| 
        STRH      A2, [SP, #4]          ; [DPU_V7M3_PIPE] |697| 
	.dwpsn	file "../ST7735.c",line 698,column 7,is_stmt,isa 1
;----------------------------------------------------------------------
; 698 | if(ms == 255) ms = 500;     // If 255, delay for 500 ms                
;----------------------------------------------------------------------
        LDRH      A1, [SP, #4]          ; [DPU_V7M3_PIPE] |698| 
        CMP       A1, #255              ; [DPU_V7M3_PIPE] |698| 
        BNE       ||$C$L11||            ; [DPU_V7M3_PIPE] |698| 
        ; BRANCHCC OCCURS {||$C$L11||}   ; [] |698| 
;* --------------------------------------------------------------------------*
	.dwpsn	file "../ST7735.c",line 698,column 21,is_stmt,isa 1
        MOV       A1, #500              ; [DPU_V7M3_PIPE] |698| 
        STRH      A1, [SP, #4]          ; [DPU_V7M3_PIPE] |698| 
;* --------------------------------------------------------------------------*
||$C$L11||:    
	.dwpsn	file "../ST7735.c",line 699,column 7,is_stmt,isa 1
;----------------------------------------------------------------------
; 699 | Delay1ms(ms);                                                          
;----------------------------------------------------------------------
        LDRH      A1, [SP, #4]          ; [DPU_V7M3_PIPE] |699| 
$C$DW$45	.dwtag  DW_TAG_TI_branch
	.dwattr $C$DW$45, DW_AT_low_pc(0x00)
	.dwattr $C$DW$45, DW_AT_name("Delay1ms")
	.dwattr $C$DW$45, DW_AT_TI_call

        BL        Delay1ms              ; [DPU_V7M3_PIPE] |699| 
        ; CALL OCCURS {Delay1ms }        ; [] |699| 
;* --------------------------------------------------------------------------*
;*   BEGIN LOOP ||$C$L12||
;* --------------------------------------------------------------------------*
||$C$L12||:    
	.dwpsn	file "../ST7735.c",line 687,column 3,is_stmt,isa 1
        LDRB      A1, [SP, #6]          ; [DPU_V7M3_PIPE] |687| 
        SUBS      A2, A1, #1            ; [DPU_V7M3_PIPE] |687| 
        CMP       A1, #0                ; [DPU_V7M3_PIPE] |687| 
        STRB      A2, [SP, #6]          ; [DPU_V7M3_PIPE] |687| 
        BNE       ||$C$L8||             ; [DPU_V7M3_PIPE] |687| 
        ; BRANCHCC OCCURS {||$C$L8||}    ; [] |687| 
;* --------------------------------------------------------------------------*
	.dwpsn	file "../ST7735.c",line 702,column 1,is_stmt,isa 1
$C$DW$46	.dwtag  DW_TAG_TI_branch
	.dwattr $C$DW$46, DW_AT_low_pc(0x00)
	.dwattr $C$DW$46, DW_AT_TI_return

        POP       {A2, A3, A4, PC}      ; [DPU_V7M3_PIPE] 
	.dwcfi	cfa_offset, 0
	.dwcfi	restore_reg, 3
	.dwcfi	restore_reg, 2
	.dwcfi	restore_reg, 1
        ; BRANCH OCCURS                  ; [] 
	.dwattr $C$DW$37, DW_AT_TI_end_file("../ST7735.c")
	.dwattr $C$DW$37, DW_AT_TI_end_line(0x2be)
	.dwattr $C$DW$37, DW_AT_TI_end_column(0x01)
	.dwendentry
	.dwendtag $C$DW$37

	.sect	".text"
	.clink
	.thumbfunc commonInit
	.thumb

$C$DW$47	.dwtag  DW_TAG_subprogram
	.dwattr $C$DW$47, DW_AT_name("commonInit")
	.dwattr $C$DW$47, DW_AT_low_pc(commonInit)
	.dwattr $C$DW$47, DW_AT_high_pc(0x00)
	.dwattr $C$DW$47, DW_AT_TI_symbol_name("commonInit")
	.dwattr $C$DW$47, DW_AT_TI_begin_file("../ST7735.c")
	.dwattr $C$DW$47, DW_AT_TI_begin_line(0x2c2)
	.dwattr $C$DW$47, DW_AT_TI_begin_column(0x0d)
	.dwattr $C$DW$47, DW_AT_decl_file("../ST7735.c")
	.dwattr $C$DW$47, DW_AT_decl_line(0x2c2)
	.dwattr $C$DW$47, DW_AT_decl_column(0x0d)
	.dwattr $C$DW$47, DW_AT_TI_max_frame_size(0x08)
	.dwpsn	file "../ST7735.c",line 706,column 48,is_stmt,address commonInit,isa 1

	.dwfde $C$DW$CIE, commonInit
$C$DW$48	.dwtag  DW_TAG_formal_parameter
	.dwattr $C$DW$48, DW_AT_name("cmdList")
	.dwattr $C$DW$48, DW_AT_TI_symbol_name("cmdList")
	.dwattr $C$DW$48, DW_AT_type(*$C$DW$T$35)
	.dwattr $C$DW$48, DW_AT_location[DW_OP_reg0]


;*****************************************************************************
;* FUNCTION NAME: commonInit                                                 *
;*                                                                           *
;*   Regs Modified     : A1,A2,A3,A4,SP,LR,SR,FPEXC,FPSCR                    *
;*   Regs Used         : A1,A2,A3,A4,SP,LR,SR,FPEXC,FPSCR                    *
;*   Local Frame Size  : 0 Args + 4 Auto + 4 Save = 8 byte                   *
;*****************************************************************************
commonInit:
;* --------------------------------------------------------------------------*
	.dwcfi	cfa_offset, 0
        PUSH      {A4, LR}              ; [DPU_V7M3_PIPE] 
	.dwcfi	cfa_offset, 8
	.dwcfi	save_reg_to_mem, 14, -4
	.dwcfi	save_reg_to_mem, 3, -8
$C$DW$49	.dwtag  DW_TAG_variable
	.dwattr $C$DW$49, DW_AT_name("cmdList")
	.dwattr $C$DW$49, DW_AT_TI_symbol_name("cmdList")
	.dwattr $C$DW$49, DW_AT_type(*$C$DW$T$35)
	.dwattr $C$DW$49, DW_AT_location[DW_OP_breg13 0]

;----------------------------------------------------------------------
; 706 | void static commonInit(const uint8_t *cmdList) {                       
; 707 | volatile uint32_t delay;                                               
;----------------------------------------------------------------------
        STR       A1, [SP, #0]          ; [DPU_V7M3_PIPE] |706| 
	.dwpsn	file "../ST7735.c",line 708,column 3,is_stmt,isa 1
;----------------------------------------------------------------------
; 708 | ColStart  = RowStart = 0; // May be overridden in init func            
;----------------------------------------------------------------------
        LDR       A2, $C$CON5           ; [DPU_V7M3_PIPE] |708| 
        MOVS      A1, #0                ; [DPU_V7M3_PIPE] |708| 
        STRB      A1, [A2, #0]          ; [DPU_V7M3_PIPE] |708| 
        LDR       A2, $C$CON4           ; [DPU_V7M3_PIPE] |708| 
        STRB      A1, [A2, #0]          ; [DPU_V7M3_PIPE] |708| 
	.dwpsn	file "../ST7735.c",line 710,column 3,is_stmt,isa 1
;----------------------------------------------------------------------
; 710 | SYSCTL_RCGCSSI_R |= 0x01;  // activate SSI0                            
;----------------------------------------------------------------------
        LDR       A2, $C$CON6           ; [DPU_V7M3_PIPE] |710| 
        LDR       A1, [A2, #0]          ; [DPU_V7M3_PIPE] |710| 
        ORR       A1, A1, #1            ; [DPU_V7M3_PIPE] |710| 
        STR       A1, [A2, #0]          ; [DPU_V7M3_PIPE] |710| 
	.dwpsn	file "../ST7735.c",line 711,column 3,is_stmt,isa 1
;----------------------------------------------------------------------
; 711 | SYSCTL_RCGCGPIO_R |= 0x01; // activate port A                          
;----------------------------------------------------------------------
        LDR       A2, $C$CON7           ; [DPU_V7M3_PIPE] |711| 
        LDR       A1, [A2, #0]          ; [DPU_V7M3_PIPE] |711| 
        ORR       A1, A1, #1            ; [DPU_V7M3_PIPE] |711| 
        STR       A1, [A2, #0]          ; [DPU_V7M3_PIPE] |711| 
	.dwpsn	file "../ST7735.c",line 712,column 3,is_stmt,isa 1
;----------------------------------------------------------------------
; 712 | while((SYSCTL_PRGPIO_R&0x01)==0){}; // allow time for clock to start   
;----------------------------------------------------------------------
;* --------------------------------------------------------------------------*
;*   BEGIN LOOP ||$C$L13||
;*
;*   Loop source line                : 712
;*   Loop closing brace source line  : 712
;*   Known Minimum Trip Count        : 1
;*   Known Maximum Trip Count        : 4294967295
;*   Known Max Trip Count Factor     : 1
;* --------------------------------------------------------------------------*
||$C$L13||:    
	.dwpsn	file "../ST7735.c",line 712,column 9,is_stmt,isa 1
;----------------------------------------------------------------------
; 714 | // toggle RST low to reset; CS low so it'll listen to us               
; 715 | // SSI0Fss is temporarily used as GPIO                                 
;----------------------------------------------------------------------
        LDR       A1, $C$CON8           ; [DPU_V7M3_PIPE] |712| 
        LDR       A1, [A1, #0]          ; [DPU_V7M3_PIPE] |712| 
        LSRS      A1, A1, #1            ; [DPU_V7M3_PIPE] |712| 
        BCC       ||$C$L13||            ; [DPU_V7M3_PIPE] |712| 
        ; BRANCHCC OCCURS {||$C$L13||}   ; [] |712| 
;* --------------------------------------------------------------------------*
	.dwpsn	file "../ST7735.c",line 716,column 3,is_stmt,isa 1
;----------------------------------------------------------------------
; 716 | GPIO_PORTA_DIR_R |= 0xC8;             // make PA3,6,7 out              
;----------------------------------------------------------------------
        LDR       A2, $C$CON9           ; [DPU_V7M3_PIPE] |716| 
        LDR       A1, [A2, #0]          ; [DPU_V7M3_PIPE] |716| 
        ORR       A1, A1, #200          ; [DPU_V7M3_PIPE] |716| 
        STR       A1, [A2, #0]          ; [DPU_V7M3_PIPE] |716| 
	.dwpsn	file "../ST7735.c",line 717,column 3,is_stmt,isa 1
;----------------------------------------------------------------------
; 717 | GPIO_PORTA_AFSEL_R &= ~0xC8;          // disable alt funct on PA3,6,7  
;----------------------------------------------------------------------
        LDR       A2, $C$CON10          ; [DPU_V7M3_PIPE] |717| 
        LDR       A1, [A2, #0]          ; [DPU_V7M3_PIPE] |717| 
        BIC       A1, A1, #200          ; [DPU_V7M3_PIPE] |717| 
        STR       A1, [A2, #0]          ; [DPU_V7M3_PIPE] |717| 
	.dwpsn	file "../ST7735.c",line 718,column 3,is_stmt,isa 1
;----------------------------------------------------------------------
; 718 | GPIO_PORTA_DEN_R |= 0xC8;             // enable digital I/O on PA3,6,7 
; 719 |                                       // configure PA3,6,7 as GPIO     
;----------------------------------------------------------------------
        LDR       A2, $C$CON11          ; [DPU_V7M3_PIPE] |718| 
        LDR       A1, [A2, #0]          ; [DPU_V7M3_PIPE] |718| 
        ORR       A1, A1, #200          ; [DPU_V7M3_PIPE] |718| 
        STR       A1, [A2, #0]          ; [DPU_V7M3_PIPE] |718| 
	.dwpsn	file "../ST7735.c",line 720,column 3,is_stmt,isa 1
;----------------------------------------------------------------------
; 720 | GPIO_PORTA_PCTL_R = (GPIO_PORTA_PCTL_R&0x00FF0FFF)+0x00000000;         
;----------------------------------------------------------------------
        LDR       A2, $C$CON12          ; [DPU_V7M3_PIPE] |720| 
        LDR       A1, $C$CON13          ; [DPU_V7M3_PIPE] |720| 
        LDR       A3, [A2, #0]          ; [DPU_V7M3_PIPE] |720| 
        LDR       A2, $C$CON12          ; [DPU_V7M3_PIPE] |720| 
        ANDS      A1, A1, A3            ; [DPU_V7M3_PIPE] |720| 
        STR       A1, [A2, #0]          ; [DPU_V7M3_PIPE] |720| 
	.dwpsn	file "../ST7735.c",line 721,column 3,is_stmt,isa 1
;----------------------------------------------------------------------
; 721 | GPIO_PORTA_AMSEL_R &= ~0xC8;          // disable analog functionality o
;     | n PA3,6,7                                                              
;----------------------------------------------------------------------
        LDR       A2, $C$CON14          ; [DPU_V7M3_PIPE] |721| 
        LDR       A1, [A2, #0]          ; [DPU_V7M3_PIPE] |721| 
        BIC       A1, A1, #200          ; [DPU_V7M3_PIPE] |721| 
        STR       A1, [A2, #0]          ; [DPU_V7M3_PIPE] |721| 
	.dwpsn	file "../ST7735.c",line 722,column 3,is_stmt,isa 1
;----------------------------------------------------------------------
; 722 | TFT_CS = TFT_CS_LOW;                                                   
;----------------------------------------------------------------------
        LDR       A2, $C$CON15          ; [DPU_V7M3_PIPE] |722| 
        MOVS      A1, #0                ; [DPU_V7M3_PIPE] |722| 
        STR       A1, [A2, #0]          ; [DPU_V7M3_PIPE] |722| 
	.dwpsn	file "../ST7735.c",line 723,column 3,is_stmt,isa 1
;----------------------------------------------------------------------
; 723 | RESET = RESET_HIGH;                                                    
;----------------------------------------------------------------------
        LDR       A2, $C$CON16          ; [DPU_V7M3_PIPE] |723| 
        MOVS      A1, #128              ; [DPU_V7M3_PIPE] |723| 
        STR       A1, [A2, #0]          ; [DPU_V7M3_PIPE] |723| 
	.dwpsn	file "../ST7735.c",line 724,column 3,is_stmt,isa 1
;----------------------------------------------------------------------
; 724 | Delay1ms(500);                                                         
;----------------------------------------------------------------------
        MOV       A1, #500              ; [DPU_V7M3_PIPE] |724| 
$C$DW$50	.dwtag  DW_TAG_TI_branch
	.dwattr $C$DW$50, DW_AT_low_pc(0x00)
	.dwattr $C$DW$50, DW_AT_name("Delay1ms")
	.dwattr $C$DW$50, DW_AT_TI_call

        BL        Delay1ms              ; [DPU_V7M3_PIPE] |724| 
        ; CALL OCCURS {Delay1ms }        ; [] |724| 
	.dwpsn	file "../ST7735.c",line 725,column 3,is_stmt,isa 1
;----------------------------------------------------------------------
; 725 | RESET = RESET_LOW;                                                     
;----------------------------------------------------------------------
        LDR       A2, $C$CON16          ; [DPU_V7M3_PIPE] |725| 
        MOVS      A1, #0                ; [DPU_V7M3_PIPE] |725| 
        STR       A1, [A2, #0]          ; [DPU_V7M3_PIPE] |725| 
	.dwpsn	file "../ST7735.c",line 726,column 3,is_stmt,isa 1
;----------------------------------------------------------------------
; 726 | Delay1ms(500);                                                         
;----------------------------------------------------------------------
        MOV       A1, #500              ; [DPU_V7M3_PIPE] |726| 
$C$DW$51	.dwtag  DW_TAG_TI_branch
	.dwattr $C$DW$51, DW_AT_low_pc(0x00)
	.dwattr $C$DW$51, DW_AT_name("Delay1ms")
	.dwattr $C$DW$51, DW_AT_TI_call

        BL        Delay1ms              ; [DPU_V7M3_PIPE] |726| 
        ; CALL OCCURS {Delay1ms }        ; [] |726| 
	.dwpsn	file "../ST7735.c",line 727,column 3,is_stmt,isa 1
;----------------------------------------------------------------------
; 727 | RESET = RESET_HIGH;                                                    
;----------------------------------------------------------------------
        LDR       A2, $C$CON16          ; [DPU_V7M3_PIPE] |727| 
        MOVS      A1, #128              ; [DPU_V7M3_PIPE] |727| 
        STR       A1, [A2, #0]          ; [DPU_V7M3_PIPE] |727| 
	.dwpsn	file "../ST7735.c",line 728,column 3,is_stmt,isa 1
;----------------------------------------------------------------------
; 728 | Delay1ms(500);                                                         
; 730 | // initialize SSI0                                                     
;----------------------------------------------------------------------
        MOV       A1, #500              ; [DPU_V7M3_PIPE] |728| 
$C$DW$52	.dwtag  DW_TAG_TI_branch
	.dwattr $C$DW$52, DW_AT_low_pc(0x00)
	.dwattr $C$DW$52, DW_AT_name("Delay1ms")
	.dwattr $C$DW$52, DW_AT_TI_call

        BL        Delay1ms              ; [DPU_V7M3_PIPE] |728| 
        ; CALL OCCURS {Delay1ms }        ; [] |728| 
	.dwpsn	file "../ST7735.c",line 731,column 3,is_stmt,isa 1
;----------------------------------------------------------------------
; 731 | GPIO_PORTA_AFSEL_R |= 0x2C;           // enable alt funct on PA2,3,5   
;----------------------------------------------------------------------
        LDR       A2, $C$CON10          ; [DPU_V7M3_PIPE] |731| 
        LDR       A1, [A2, #0]          ; [DPU_V7M3_PIPE] |731| 
        ORR       A1, A1, #44           ; [DPU_V7M3_PIPE] |731| 
        STR       A1, [A2, #0]          ; [DPU_V7M3_PIPE] |731| 
	.dwpsn	file "../ST7735.c",line 732,column 3,is_stmt,isa 1
;----------------------------------------------------------------------
; 732 | GPIO_PORTA_DEN_R |= 0x2C;             // enable digital I/O on PA2,3,5 
; 733 |                                       // configure PA2,3,5 as SSI      
;----------------------------------------------------------------------
        LDR       A2, $C$CON11          ; [DPU_V7M3_PIPE] |732| 
        LDR       A1, [A2, #0]          ; [DPU_V7M3_PIPE] |732| 
        ORR       A1, A1, #44           ; [DPU_V7M3_PIPE] |732| 
        STR       A1, [A2, #0]          ; [DPU_V7M3_PIPE] |732| 
	.dwpsn	file "../ST7735.c",line 734,column 3,is_stmt,isa 1
;----------------------------------------------------------------------
; 734 | GPIO_PORTA_PCTL_R = (GPIO_PORTA_PCTL_R&0xFF0F00FF)+0x00202200;         
;----------------------------------------------------------------------
        LDR       A2, $C$CON12          ; [DPU_V7M3_PIPE] |734| 
        LDR       A1, $C$CON18          ; [DPU_V7M3_PIPE] |734| 
        LDR       A3, $C$CON12          ; [DPU_V7M3_PIPE] |734| 
        LDR       A4, [A2, #0]          ; [DPU_V7M3_PIPE] |734| 
        LDR       A2, $C$CON17          ; [DPU_V7M3_PIPE] |734| 
        ANDS      A1, A1, A4            ; [DPU_V7M3_PIPE] |734| 
        ADDS      A2, A2, A1            ; [DPU_V7M3_PIPE] |734| 
        STR       A2, [A3, #0]          ; [DPU_V7M3_PIPE] |734| 
	.dwpsn	file "../ST7735.c",line 735,column 3,is_stmt,isa 1
;----------------------------------------------------------------------
; 735 | GPIO_PORTA_AMSEL_R &= ~0x2C;          // disable analog functionality o
;     | n PA2,3,5                                                              
;----------------------------------------------------------------------
        LDR       A2, $C$CON14          ; [DPU_V7M3_PIPE] |735| 
        LDR       A1, [A2, #0]          ; [DPU_V7M3_PIPE] |735| 
        BIC       A1, A1, #44           ; [DPU_V7M3_PIPE] |735| 
        STR       A1, [A2, #0]          ; [DPU_V7M3_PIPE] |735| 
	.dwpsn	file "../ST7735.c",line 736,column 3,is_stmt,isa 1
;----------------------------------------------------------------------
; 736 | SSI0_CR1_R &= ~SSI_CR1_SSE;           // disable SSI                   
;----------------------------------------------------------------------
        LDR       A2, $C$CON19          ; [DPU_V7M3_PIPE] |736| 
        LDR       A1, [A2, #0]          ; [DPU_V7M3_PIPE] |736| 
        BIC       A1, A1, #2            ; [DPU_V7M3_PIPE] |736| 
        STR       A1, [A2, #0]          ; [DPU_V7M3_PIPE] |736| 
	.dwpsn	file "../ST7735.c",line 737,column 3,is_stmt,isa 1
;----------------------------------------------------------------------
; 737 | SSI0_CR1_R &= ~SSI_CR1_MS;            // master mode                   
; 738 |                                       // configure for system clock/PLL
;     |  baud clock source                                                     
;----------------------------------------------------------------------
        LDR       A2, $C$CON19          ; [DPU_V7M3_PIPE] |737| 
        LDR       A1, [A2, #0]          ; [DPU_V7M3_PIPE] |737| 
        BIC       A1, A1, #4            ; [DPU_V7M3_PIPE] |737| 
        STR       A1, [A2, #0]          ; [DPU_V7M3_PIPE] |737| 
	.dwpsn	file "../ST7735.c",line 739,column 3,is_stmt,isa 1
;----------------------------------------------------------------------
; 739 | SSI0_CC_R = (SSI0_CC_R&~SSI_CC_CS_M)+SSI_CC_CS_SYSPLL;                 
; 740 | //                                        // clock divider for 3.125 MH
;     | z SSIClk (50 MHz PIOSC/16)                                             
; 741 | //  SSI0_CPSR_R = (SSI0_CPSR_R&~SSI_CPSR_CPSDVSR_M)+16;                
; 742 |                                       // clock divider for 8 MHz SSIClk
;     |  (80 MHz PLL/24)                                                       
; 743 |                                       // SysClk/(CPSDVSR*(1+SCR))      
; 744 |                                       // 80/(10*(1+0)) = 8 MHz (slower
;     | than 4 MHz)                                                            
;----------------------------------------------------------------------
        LDR       A1, $C$CON20          ; [DPU_V7M3_PIPE] |739| 
        LDR       A2, $C$CON20          ; [DPU_V7M3_PIPE] |739| 
        LDR       A1, [A1, #0]          ; [DPU_V7M3_PIPE] |739| 
        BIC       A1, A1, #15           ; [DPU_V7M3_PIPE] |739| 
        STR       A1, [A2, #0]          ; [DPU_V7M3_PIPE] |739| 
	.dwpsn	file "../ST7735.c",line 745,column 3,is_stmt,isa 1
;----------------------------------------------------------------------
; 745 | SSI0_CPSR_R = (SSI0_CPSR_R&~SSI_CPSR_CPSDVSR_M)+10; // must be even num
;     | ber                                                                    
;----------------------------------------------------------------------
        LDR       A1, $C$CON21          ; [DPU_V7M3_PIPE] |745| 
        LDR       A2, $C$CON21          ; [DPU_V7M3_PIPE] |745| 
        LDR       A1, [A1, #0]          ; [DPU_V7M3_PIPE] |745| 
        BIC       A1, A1, #255          ; [DPU_V7M3_PIPE] |745| 
        ADDS      A1, A1, #10           ; [DPU_V7M3_PIPE] |745| 
        STR       A1, [A2, #0]          ; [DPU_V7M3_PIPE] |745| 
	.dwpsn	file "../ST7735.c",line 746,column 3,is_stmt,isa 1
;----------------------------------------------------------------------
; 746 | SSI0_CR0_R &= ~(SSI_CR0_SCR_M |       // SCR = 0 (8 Mbps data rate)    
; 747 |                 SSI_CR0_SPH |         // SPH = 0                       
; 748 |                 SSI_CR0_SPO);         // SPO = 0                       
; 749 |                                       // FRF = Freescale format        
;----------------------------------------------------------------------
        LDR       A2, $C$CON22          ; [DPU_V7M3_PIPE] |746| 
        LDR       A1, [A2, #0]          ; [DPU_V7M3_PIPE] |746| 
        BFC       A1, #6, #10           ; [DPU_V7M3_PIPE] |746| 
        STR       A1, [A2, #0]          ; [DPU_V7M3_PIPE] |746| 
	.dwpsn	file "../ST7735.c",line 750,column 3,is_stmt,isa 1
;----------------------------------------------------------------------
; 750 | SSI0_CR0_R = (SSI0_CR0_R&~SSI_CR0_FRF_M)+SSI_CR0_FRF_MOTO;             
; 751 |                                       // DSS = 8-bit data              
;----------------------------------------------------------------------
        LDR       A1, $C$CON22          ; [DPU_V7M3_PIPE] |750| 
        LDR       A2, $C$CON22          ; [DPU_V7M3_PIPE] |750| 
        LDR       A1, [A1, #0]          ; [DPU_V7M3_PIPE] |750| 
        BIC       A1, A1, #48           ; [DPU_V7M3_PIPE] |750| 
        STR       A1, [A2, #0]          ; [DPU_V7M3_PIPE] |750| 
	.dwpsn	file "../ST7735.c",line 752,column 3,is_stmt,isa 1
;----------------------------------------------------------------------
; 752 | SSI0_CR0_R = (SSI0_CR0_R&~SSI_CR0_DSS_M)+SSI_CR0_DSS_8;                
;----------------------------------------------------------------------
        LDR       A1, $C$CON22          ; [DPU_V7M3_PIPE] |752| 
        LDR       A2, $C$CON22          ; [DPU_V7M3_PIPE] |752| 
        LDR       A1, [A1, #0]          ; [DPU_V7M3_PIPE] |752| 
        BIC       A1, A1, #15           ; [DPU_V7M3_PIPE] |752| 
        ADDS      A1, A1, #7            ; [DPU_V7M3_PIPE] |752| 
        STR       A1, [A2, #0]          ; [DPU_V7M3_PIPE] |752| 
	.dwpsn	file "../ST7735.c",line 753,column 3,is_stmt,isa 1
;----------------------------------------------------------------------
; 753 | SSI0_CR1_R |= SSI_CR1_SSE;            // enable SSI                    
;----------------------------------------------------------------------
        LDR       A2, $C$CON19          ; [DPU_V7M3_PIPE] |753| 
        LDR       A1, [A2, #0]          ; [DPU_V7M3_PIPE] |753| 
        ORR       A1, A1, #2            ; [DPU_V7M3_PIPE] |753| 
        STR       A1, [A2, #0]          ; [DPU_V7M3_PIPE] |753| 
	.dwpsn	file "../ST7735.c",line 755,column 3,is_stmt,isa 1
;----------------------------------------------------------------------
; 755 | if(cmdList) commandList(cmdList);                                      
;----------------------------------------------------------------------
        LDR       A1, [SP, #0]          ; [DPU_V7M3_PIPE] |755| 
        CBZ       A1, ||$C$L14||        ; [] 
        ; BRANCHCC OCCURS {||$C$L14||}   ; [] |755| 
;* --------------------------------------------------------------------------*
	.dwpsn	file "../ST7735.c",line 755,column 15,is_stmt,isa 1
        LDR       A1, [SP, #0]          ; [DPU_V7M3_PIPE] |755| 
$C$DW$53	.dwtag  DW_TAG_TI_branch
	.dwattr $C$DW$53, DW_AT_low_pc(0x00)
	.dwattr $C$DW$53, DW_AT_name("commandList")
	.dwattr $C$DW$53, DW_AT_TI_call

        BL        commandList           ; [DPU_V7M3_PIPE] |755| 
        ; CALL OCCURS {commandList }     ; [] |755| 
	.dwpsn	file "../ST7735.c",line 756,column 1,is_stmt,isa 1
;* --------------------------------------------------------------------------*
||$C$L14||:    
$C$DW$54	.dwtag  DW_TAG_TI_branch
	.dwattr $C$DW$54, DW_AT_low_pc(0x00)
	.dwattr $C$DW$54, DW_AT_TI_return

        POP       {A4, PC}              ; [DPU_V7M3_PIPE] 
	.dwcfi	cfa_offset, 0
	.dwcfi	restore_reg, 3
        ; BRANCH OCCURS                  ; [] 
	.dwattr $C$DW$47, DW_AT_TI_end_file("../ST7735.c")
	.dwattr $C$DW$47, DW_AT_TI_end_line(0x2f4)
	.dwattr $C$DW$47, DW_AT_TI_end_column(0x01)
	.dwendentry
	.dwendtag $C$DW$47

	.sect	".text"
	.clink
	.thumbfunc ST7735_InitB
	.thumb
	.global	ST7735_InitB

$C$DW$55	.dwtag  DW_TAG_subprogram
	.dwattr $C$DW$55, DW_AT_name("ST7735_InitB")
	.dwattr $C$DW$55, DW_AT_low_pc(ST7735_InitB)
	.dwattr $C$DW$55, DW_AT_high_pc(0x00)
	.dwattr $C$DW$55, DW_AT_TI_symbol_name("ST7735_InitB")
	.dwattr $C$DW$55, DW_AT_external
	.dwattr $C$DW$55, DW_AT_TI_begin_file("../ST7735.c")
	.dwattr $C$DW$55, DW_AT_TI_begin_line(0x2fb)
	.dwattr $C$DW$55, DW_AT_TI_begin_column(0x06)
	.dwattr $C$DW$55, DW_AT_decl_file("../ST7735.c")
	.dwattr $C$DW$55, DW_AT_decl_line(0x2fb)
	.dwattr $C$DW$55, DW_AT_decl_column(0x06)
	.dwattr $C$DW$55, DW_AT_TI_max_frame_size(0x08)
	.dwpsn	file "../ST7735.c",line 763,column 25,is_stmt,address ST7735_InitB,isa 1

	.dwfde $C$DW$CIE, ST7735_InitB
;----------------------------------------------------------------------
; 763 | void ST7735_InitB(void) {                                              
;----------------------------------------------------------------------

;*****************************************************************************
;* FUNCTION NAME: ST7735_InitB                                               *
;*                                                                           *
;*   Regs Modified     : A1,A2,A3,A4,V9,SP,LR,SR,D0,D0_hi,D1,D1_hi,D2,D2_hi, *
;*                           D3,D3_hi,D4,D4_hi,D5,D5_hi,D6,D6_hi,D7,D7_hi,   *
;*                           FPEXC,FPSCR                                     *
;*   Regs Used         : A1,A2,A3,A4,V9,SP,LR,SR,D0,D0_hi,D1,D1_hi,D2,D2_hi, *
;*                           D3,D3_hi,D4,D4_hi,D5,D5_hi,D6,D6_hi,D7,D7_hi,   *
;*                           FPEXC,FPSCR                                     *
;*   Local Frame Size  : 0 Args + 0 Auto + 4 Save = 4 byte                   *
;*****************************************************************************
ST7735_InitB:
;* --------------------------------------------------------------------------*
	.dwcfi	cfa_offset, 0
        PUSH      {A4, LR}              ; [DPU_V7M3_PIPE] 
	.dwcfi	cfa_offset, 8
	.dwcfi	save_reg_to_mem, 14, -4
	.dwcfi	save_reg_to_mem, 3, -8
	.dwpsn	file "../ST7735.c",line 764,column 3,is_stmt,isa 1
;----------------------------------------------------------------------
; 764 | commonInit(Bcmd);                                                      
;----------------------------------------------------------------------
        LDR       A1, $C$CON23          ; [DPU_V7M3_PIPE] |764| 
$C$DW$56	.dwtag  DW_TAG_TI_branch
	.dwattr $C$DW$56, DW_AT_low_pc(0x00)
	.dwattr $C$DW$56, DW_AT_name("commonInit")
	.dwattr $C$DW$56, DW_AT_TI_call

        BL        commonInit            ; [DPU_V7M3_PIPE] |764| 
        ; CALL OCCURS {commonInit }      ; [] |764| 
	.dwpsn	file "../ST7735.c",line 765,column 3,is_stmt,isa 1
;----------------------------------------------------------------------
; 765 | ST7735_SetCursor(0,0);                                                 
;----------------------------------------------------------------------
        MOVS      A1, #0                ; [DPU_V7M3_PIPE] |765| 
        MOVS      A2, #0                ; [DPU_V7M3_PIPE] |765| 
$C$DW$57	.dwtag  DW_TAG_TI_branch
	.dwattr $C$DW$57, DW_AT_low_pc(0x00)
	.dwattr $C$DW$57, DW_AT_name("ST7735_SetCursor")
	.dwattr $C$DW$57, DW_AT_TI_call

        BL        ST7735_SetCursor      ; [DPU_V7M3_PIPE] |765| 
        ; CALL OCCURS {ST7735_SetCursor }  ; [] |765| 
	.dwpsn	file "../ST7735.c",line 766,column 3,is_stmt,isa 1
;----------------------------------------------------------------------
; 766 | StTextColor = ST7735_YELLOW;                                           
;----------------------------------------------------------------------
        LDR       A2, $C$CON24          ; [DPU_V7M3_PIPE] |766| 
        MOV       A1, #2047             ; [DPU_V7M3_PIPE] |766| 
        STRH      A1, [A2, #0]          ; [DPU_V7M3_PIPE] |766| 
	.dwpsn	file "../ST7735.c",line 767,column 3,is_stmt,isa 1
;----------------------------------------------------------------------
; 767 | ST7735_FillScreen(0);                 // set screen to black           
;----------------------------------------------------------------------
        MOVS      A1, #0                ; [DPU_V7M3_PIPE] |767| 
$C$DW$58	.dwtag  DW_TAG_TI_branch
	.dwattr $C$DW$58, DW_AT_low_pc(0x00)
	.dwattr $C$DW$58, DW_AT_name("ST7735_FillScreen")
	.dwattr $C$DW$58, DW_AT_TI_call

        BL        ST7735_FillScreen     ; [DPU_V7M3_PIPE] |767| 
        ; CALL OCCURS {ST7735_FillScreen }  ; [] |767| 
	.dwpsn	file "../ST7735.c",line 768,column 1,is_stmt,isa 1
$C$DW$59	.dwtag  DW_TAG_TI_branch
	.dwattr $C$DW$59, DW_AT_low_pc(0x00)
	.dwattr $C$DW$59, DW_AT_TI_return

        POP       {A4, PC}              ; [DPU_V7M3_PIPE] 
	.dwcfi	cfa_offset, 0
	.dwcfi	restore_reg, 3
        ; BRANCH OCCURS                  ; [] 
	.dwattr $C$DW$55, DW_AT_TI_end_file("../ST7735.c")
	.dwattr $C$DW$55, DW_AT_TI_end_line(0x300)
	.dwattr $C$DW$55, DW_AT_TI_end_column(0x01)
	.dwendentry
	.dwendtag $C$DW$55

	.sect	".text"
	.clink
	.thumbfunc ST7735_InitR
	.thumb
	.global	ST7735_InitR

$C$DW$60	.dwtag  DW_TAG_subprogram
	.dwattr $C$DW$60, DW_AT_name("ST7735_InitR")
	.dwattr $C$DW$60, DW_AT_low_pc(ST7735_InitR)
	.dwattr $C$DW$60, DW_AT_high_pc(0x00)
	.dwattr $C$DW$60, DW_AT_TI_symbol_name("ST7735_InitR")
	.dwattr $C$DW$60, DW_AT_external
	.dwattr $C$DW$60, DW_AT_TI_begin_file("../ST7735.c")
	.dwattr $C$DW$60, DW_AT_TI_begin_line(0x307)
	.dwattr $C$DW$60, DW_AT_TI_begin_column(0x06)
	.dwattr $C$DW$60, DW_AT_decl_file("../ST7735.c")
	.dwattr $C$DW$60, DW_AT_decl_line(0x307)
	.dwattr $C$DW$60, DW_AT_decl_column(0x06)
	.dwattr $C$DW$60, DW_AT_TI_max_frame_size(0x08)
	.dwpsn	file "../ST7735.c",line 775,column 43,is_stmt,address ST7735_InitR,isa 1

	.dwfde $C$DW$CIE, ST7735_InitR
$C$DW$61	.dwtag  DW_TAG_formal_parameter
	.dwattr $C$DW$61, DW_AT_name("option")
	.dwattr $C$DW$61, DW_AT_TI_symbol_name("option")
	.dwattr $C$DW$61, DW_AT_type(*$C$DW$T$10)
	.dwattr $C$DW$61, DW_AT_location[DW_OP_reg0]


;*****************************************************************************
;* FUNCTION NAME: ST7735_InitR                                               *
;*                                                                           *
;*   Regs Modified     : A1,A2,A3,A4,V9,SP,LR,SR,D0,D0_hi,D1,D1_hi,D2,D2_hi, *
;*                           D3,D3_hi,D4,D4_hi,D5,D5_hi,D6,D6_hi,D7,D7_hi,   *
;*                           FPEXC,FPSCR                                     *
;*   Regs Used         : A1,A2,A3,A4,V9,SP,LR,SR,D0,D0_hi,D1,D1_hi,D2,D2_hi, *
;*                           D3,D3_hi,D4,D4_hi,D5,D5_hi,D6,D6_hi,D7,D7_hi,   *
;*                           FPEXC,FPSCR                                     *
;*   Local Frame Size  : 0 Args + 4 Auto + 4 Save = 8 byte                   *
;*****************************************************************************
ST7735_InitR:
;* --------------------------------------------------------------------------*
	.dwcfi	cfa_offset, 0
        PUSH      {A4, LR}              ; [DPU_V7M3_PIPE] 
	.dwcfi	cfa_offset, 8
	.dwcfi	save_reg_to_mem, 14, -4
	.dwcfi	save_reg_to_mem, 3, -8
$C$DW$62	.dwtag  DW_TAG_variable
	.dwattr $C$DW$62, DW_AT_name("option")
	.dwattr $C$DW$62, DW_AT_TI_symbol_name("option")
	.dwattr $C$DW$62, DW_AT_type(*$C$DW$T$40)
	.dwattr $C$DW$62, DW_AT_location[DW_OP_breg13 0]

;----------------------------------------------------------------------
; 775 | void ST7735_InitR(enum initRFlags option) {                            
;----------------------------------------------------------------------
        STRB      A1, [SP, #0]          ; [DPU_V7M3_PIPE] |775| 
	.dwpsn	file "../ST7735.c",line 776,column 3,is_stmt,isa 1
;----------------------------------------------------------------------
; 776 | commonInit(Rcmd1);                                                     
;----------------------------------------------------------------------
        LDR       A1, $C$CON25          ; [DPU_V7M3_PIPE] |776| 
$C$DW$63	.dwtag  DW_TAG_TI_branch
	.dwattr $C$DW$63, DW_AT_low_pc(0x00)
	.dwattr $C$DW$63, DW_AT_name("commonInit")
	.dwattr $C$DW$63, DW_AT_TI_call

        BL        commonInit            ; [DPU_V7M3_PIPE] |776| 
        ; CALL OCCURS {commonInit }      ; [] |776| 
	.dwpsn	file "../ST7735.c",line 777,column 3,is_stmt,isa 1
;----------------------------------------------------------------------
; 777 | if(option == INITR_GREENTAB) {                                         
;----------------------------------------------------------------------
        LDRB      A1, [SP, #0]          ; [DPU_V7M3_PIPE] |777| 
        CMP       A1, #1                ; [DPU_V7M3_PIPE] |777| 
        BNE       ||$C$L15||            ; [DPU_V7M3_PIPE] |777| 
        ; BRANCHCC OCCURS {||$C$L15||}   ; [] |777| 
;* --------------------------------------------------------------------------*
	.dwpsn	file "../ST7735.c",line 778,column 5,is_stmt,isa 1
;----------------------------------------------------------------------
; 778 | commandList(Rcmd2green);                                               
;----------------------------------------------------------------------
        LDR       A1, $C$CON26          ; [DPU_V7M3_PIPE] |778| 
$C$DW$64	.dwtag  DW_TAG_TI_branch
	.dwattr $C$DW$64, DW_AT_low_pc(0x00)
	.dwattr $C$DW$64, DW_AT_name("commandList")
	.dwattr $C$DW$64, DW_AT_TI_call

        BL        commandList           ; [DPU_V7M3_PIPE] |778| 
        ; CALL OCCURS {commandList }     ; [] |778| 
	.dwpsn	file "../ST7735.c",line 779,column 5,is_stmt,isa 1
;----------------------------------------------------------------------
; 779 | ColStart = 2;                                                          
;----------------------------------------------------------------------
        LDR       A2, $C$CON4           ; [DPU_V7M3_PIPE] |779| 
        MOVS      A1, #2                ; [DPU_V7M3_PIPE] |779| 
        STRB      A1, [A2, #0]          ; [DPU_V7M3_PIPE] |779| 
	.dwpsn	file "../ST7735.c",line 780,column 5,is_stmt,isa 1
;----------------------------------------------------------------------
; 780 | RowStart = 1;                                                          
;----------------------------------------------------------------------
        LDR       A2, $C$CON5           ; [DPU_V7M3_PIPE] |780| 
        MOVS      A1, #1                ; [DPU_V7M3_PIPE] |780| 
        STRB      A1, [A2, #0]          ; [DPU_V7M3_PIPE] |780| 
	.dwpsn	file "../ST7735.c",line 781,column 3,is_stmt,isa 1
;----------------------------------------------------------------------
; 781 | } else {                                                               
; 782 |   // colstart, rowstart left at default '0' values                     
;----------------------------------------------------------------------
        B         ||$C$L16||            ; [DPU_V7M3_PIPE] |781| 
        ; BRANCH OCCURS {||$C$L16||}     ; [] |781| 
;* --------------------------------------------------------------------------*
||$C$L15||:    
	.dwpsn	file "../ST7735.c",line 783,column 5,is_stmt,isa 1
;----------------------------------------------------------------------
; 783 | commandList(Rcmd2red);                                                 
;----------------------------------------------------------------------
        LDR       A1, $C$CON27          ; [DPU_V7M3_PIPE] |783| 
$C$DW$65	.dwtag  DW_TAG_TI_branch
	.dwattr $C$DW$65, DW_AT_low_pc(0x00)
	.dwattr $C$DW$65, DW_AT_name("commandList")
	.dwattr $C$DW$65, DW_AT_TI_call

        BL        commandList           ; [DPU_V7M3_PIPE] |783| 
        ; CALL OCCURS {commandList }     ; [] |783| 
;* --------------------------------------------------------------------------*
||$C$L16||:    
	.dwpsn	file "../ST7735.c",line 785,column 3,is_stmt,isa 1
;----------------------------------------------------------------------
; 785 | commandList(Rcmd3);                                                    
; 787 | // if black, change MADCTL color filter                                
;----------------------------------------------------------------------
        LDR       A1, $C$CON28          ; [DPU_V7M3_PIPE] |785| 
$C$DW$66	.dwtag  DW_TAG_TI_branch
	.dwattr $C$DW$66, DW_AT_low_pc(0x00)
	.dwattr $C$DW$66, DW_AT_name("commandList")
	.dwattr $C$DW$66, DW_AT_TI_call

        BL        commandList           ; [DPU_V7M3_PIPE] |785| 
        ; CALL OCCURS {commandList }     ; [] |785| 
	.dwpsn	file "../ST7735.c",line 788,column 3,is_stmt,isa 1
;----------------------------------------------------------------------
; 788 | if (option == INITR_BLACKTAB) {                                        
;----------------------------------------------------------------------
        LDRB      A1, [SP, #0]          ; [DPU_V7M3_PIPE] |788| 
        CMP       A1, #3                ; [DPU_V7M3_PIPE] |788| 
        BNE       ||$C$L17||            ; [DPU_V7M3_PIPE] |788| 
        ; BRANCHCC OCCURS {||$C$L17||}   ; [] |788| 
;* --------------------------------------------------------------------------*
	.dwpsn	file "../ST7735.c",line 789,column 5,is_stmt,isa 1
;----------------------------------------------------------------------
; 789 | writecommand(ST7735_MADCTL);                                           
;----------------------------------------------------------------------
        MOVS      A1, #54               ; [DPU_V7M3_PIPE] |789| 
$C$DW$67	.dwtag  DW_TAG_TI_branch
	.dwattr $C$DW$67, DW_AT_low_pc(0x00)
	.dwattr $C$DW$67, DW_AT_name("writecommand")
	.dwattr $C$DW$67, DW_AT_TI_call

        BL        writecommand          ; [DPU_V7M3_PIPE] |789| 
        ; CALL OCCURS {writecommand }    ; [] |789| 
	.dwpsn	file "../ST7735.c",line 790,column 5,is_stmt,isa 1
;----------------------------------------------------------------------
; 790 | writedata(0xC0);                                                       
;----------------------------------------------------------------------
        MOVS      A1, #192              ; [DPU_V7M3_PIPE] |790| 
$C$DW$68	.dwtag  DW_TAG_TI_branch
	.dwattr $C$DW$68, DW_AT_low_pc(0x00)
	.dwattr $C$DW$68, DW_AT_name("writedata")
	.dwattr $C$DW$68, DW_AT_TI_call

        BL        writedata             ; [DPU_V7M3_PIPE] |790| 
        ; CALL OCCURS {writedata }       ; [] |790| 
;* --------------------------------------------------------------------------*
||$C$L17||:    
	.dwpsn	file "../ST7735.c",line 792,column 3,is_stmt,isa 1
;----------------------------------------------------------------------
; 792 | TabColor = option;                                                     
;----------------------------------------------------------------------
        LDRB      A1, [SP, #0]          ; [DPU_V7M3_PIPE] |792| 
        LDR       A2, $C$CON29          ; [DPU_V7M3_PIPE] |792| 
        STRB      A1, [A2, #0]          ; [DPU_V7M3_PIPE] |792| 
	.dwpsn	file "../ST7735.c",line 793,column 3,is_stmt,isa 1
;----------------------------------------------------------------------
; 793 | ST7735_SetCursor(0,0);                                                 
;----------------------------------------------------------------------
        MOVS      A1, #0                ; [DPU_V7M3_PIPE] |793| 
        MOVS      A2, #0                ; [DPU_V7M3_PIPE] |793| 
$C$DW$69	.dwtag  DW_TAG_TI_branch
	.dwattr $C$DW$69, DW_AT_low_pc(0x00)
	.dwattr $C$DW$69, DW_AT_name("ST7735_SetCursor")
	.dwattr $C$DW$69, DW_AT_TI_call

        BL        ST7735_SetCursor      ; [DPU_V7M3_PIPE] |793| 
        ; CALL OCCURS {ST7735_SetCursor }  ; [] |793| 
	.dwpsn	file "../ST7735.c",line 794,column 3,is_stmt,isa 1
;----------------------------------------------------------------------
; 794 | StTextColor = ST7735_YELLOW;                                           
;----------------------------------------------------------------------
        LDR       A2, $C$CON24          ; [DPU_V7M3_PIPE] |794| 
        MOV       A1, #2047             ; [DPU_V7M3_PIPE] |794| 
        STRH      A1, [A2, #0]          ; [DPU_V7M3_PIPE] |794| 
	.dwpsn	file "../ST7735.c",line 795,column 3,is_stmt,isa 1
;----------------------------------------------------------------------
; 795 | ST7735_FillScreen(0);                 // set screen to black           
;----------------------------------------------------------------------
        MOVS      A1, #0                ; [DPU_V7M3_PIPE] |795| 
$C$DW$70	.dwtag  DW_TAG_TI_branch
	.dwattr $C$DW$70, DW_AT_low_pc(0x00)
	.dwattr $C$DW$70, DW_AT_name("ST7735_FillScreen")
	.dwattr $C$DW$70, DW_AT_TI_call

        BL        ST7735_FillScreen     ; [DPU_V7M3_PIPE] |795| 
        ; CALL OCCURS {ST7735_FillScreen }  ; [] |795| 
	.dwpsn	file "../ST7735.c",line 796,column 1,is_stmt,isa 1
$C$DW$71	.dwtag  DW_TAG_TI_branch
	.dwattr $C$DW$71, DW_AT_low_pc(0x00)
	.dwattr $C$DW$71, DW_AT_TI_return

        POP       {A4, PC}              ; [DPU_V7M3_PIPE] 
	.dwcfi	cfa_offset, 0
	.dwcfi	restore_reg, 3
        ; BRANCH OCCURS                  ; [] 
	.dwattr $C$DW$60, DW_AT_TI_end_file("../ST7735.c")
	.dwattr $C$DW$60, DW_AT_TI_end_line(0x31c)
	.dwattr $C$DW$60, DW_AT_TI_end_column(0x01)
	.dwendentry
	.dwendtag $C$DW$60

	.sect	".text"
	.clink
	.thumbfunc setAddrWindow
	.thumb

$C$DW$72	.dwtag  DW_TAG_subprogram
	.dwattr $C$DW$72, DW_AT_name("setAddrWindow")
	.dwattr $C$DW$72, DW_AT_low_pc(setAddrWindow)
	.dwattr $C$DW$72, DW_AT_high_pc(0x00)
	.dwattr $C$DW$72, DW_AT_TI_symbol_name("setAddrWindow")
	.dwattr $C$DW$72, DW_AT_TI_begin_file("../ST7735.c")
	.dwattr $C$DW$72, DW_AT_TI_begin_line(0x323)
	.dwattr $C$DW$72, DW_AT_TI_begin_column(0x0d)
	.dwattr $C$DW$72, DW_AT_decl_file("../ST7735.c")
	.dwattr $C$DW$72, DW_AT_decl_line(0x323)
	.dwattr $C$DW$72, DW_AT_decl_column(0x0d)
	.dwattr $C$DW$72, DW_AT_TI_max_frame_size(0x08)
	.dwpsn	file "../ST7735.c",line 803,column 75,is_stmt,address setAddrWindow,isa 1

	.dwfde $C$DW$CIE, setAddrWindow
$C$DW$73	.dwtag  DW_TAG_formal_parameter
	.dwattr $C$DW$73, DW_AT_name("x0")
	.dwattr $C$DW$73, DW_AT_TI_symbol_name("x0")
	.dwattr $C$DW$73, DW_AT_type(*$C$DW$T$10)
	.dwattr $C$DW$73, DW_AT_location[DW_OP_reg0]

$C$DW$74	.dwtag  DW_TAG_formal_parameter
	.dwattr $C$DW$74, DW_AT_name("y0")
	.dwattr $C$DW$74, DW_AT_TI_symbol_name("y0")
	.dwattr $C$DW$74, DW_AT_type(*$C$DW$T$10)
	.dwattr $C$DW$74, DW_AT_location[DW_OP_reg1]

$C$DW$75	.dwtag  DW_TAG_formal_parameter
	.dwattr $C$DW$75, DW_AT_name("x1")
	.dwattr $C$DW$75, DW_AT_TI_symbol_name("x1")
	.dwattr $C$DW$75, DW_AT_type(*$C$DW$T$10)
	.dwattr $C$DW$75, DW_AT_location[DW_OP_reg2]

$C$DW$76	.dwtag  DW_TAG_formal_parameter
	.dwattr $C$DW$76, DW_AT_name("y1")
	.dwattr $C$DW$76, DW_AT_TI_symbol_name("y1")
	.dwattr $C$DW$76, DW_AT_type(*$C$DW$T$10)
	.dwattr $C$DW$76, DW_AT_location[DW_OP_reg3]


;*****************************************************************************
;* FUNCTION NAME: setAddrWindow                                              *
;*                                                                           *
;*   Regs Modified     : A1,A2,A4,SP,LR,SR,FPEXC,FPSCR                       *
;*   Regs Used         : A1,A2,A3,A4,SP,LR,SR,FPEXC,FPSCR                    *
;*   Local Frame Size  : 0 Args + 4 Auto + 4 Save = 8 byte                   *
;*****************************************************************************
setAddrWindow:
;* --------------------------------------------------------------------------*
	.dwcfi	cfa_offset, 0
        PUSH      {A4, LR}              ; [DPU_V7M3_PIPE] 
	.dwcfi	cfa_offset, 8
	.dwcfi	save_reg_to_mem, 14, -4
	.dwcfi	save_reg_to_mem, 3, -8
$C$DW$77	.dwtag  DW_TAG_variable
	.dwattr $C$DW$77, DW_AT_name("x0")
	.dwattr $C$DW$77, DW_AT_TI_symbol_name("x0")
	.dwattr $C$DW$77, DW_AT_type(*$C$DW$T$27)
	.dwattr $C$DW$77, DW_AT_location[DW_OP_breg13 0]

$C$DW$78	.dwtag  DW_TAG_variable
	.dwattr $C$DW$78, DW_AT_name("y0")
	.dwattr $C$DW$78, DW_AT_TI_symbol_name("y0")
	.dwattr $C$DW$78, DW_AT_type(*$C$DW$T$27)
	.dwattr $C$DW$78, DW_AT_location[DW_OP_breg13 1]

$C$DW$79	.dwtag  DW_TAG_variable
	.dwattr $C$DW$79, DW_AT_name("x1")
	.dwattr $C$DW$79, DW_AT_TI_symbol_name("x1")
	.dwattr $C$DW$79, DW_AT_type(*$C$DW$T$27)
	.dwattr $C$DW$79, DW_AT_location[DW_OP_breg13 2]

$C$DW$80	.dwtag  DW_TAG_variable
	.dwattr $C$DW$80, DW_AT_name("y1")
	.dwattr $C$DW$80, DW_AT_TI_symbol_name("y1")
	.dwattr $C$DW$80, DW_AT_type(*$C$DW$T$27)
	.dwattr $C$DW$80, DW_AT_location[DW_OP_breg13 3]

;----------------------------------------------------------------------
; 803 | void static setAddrWindow(uint8_t x0, uint8_t y0, uint8_t x1, uint8_t y
;     | 1) {                                                                   
;----------------------------------------------------------------------
        STRB      A4, [SP, #3]          ; [DPU_V7M3_PIPE] |803| 
        STRB      A3, [SP, #2]          ; [DPU_V7M3_PIPE] |803| 
        STRB      A2, [SP, #1]          ; [DPU_V7M3_PIPE] |803| 
        STRB      A1, [SP, #0]          ; [DPU_V7M3_PIPE] |803| 
	.dwpsn	file "../ST7735.c",line 805,column 3,is_stmt,isa 1
;----------------------------------------------------------------------
; 805 | writecommand(ST7735_CASET); // Column addr set                         
;----------------------------------------------------------------------
        MOVS      A1, #42               ; [DPU_V7M3_PIPE] |805| 
$C$DW$81	.dwtag  DW_TAG_TI_branch
	.dwattr $C$DW$81, DW_AT_low_pc(0x00)
	.dwattr $C$DW$81, DW_AT_name("writecommand")
	.dwattr $C$DW$81, DW_AT_TI_call

        BL        writecommand          ; [DPU_V7M3_PIPE] |805| 
        ; CALL OCCURS {writecommand }    ; [] |805| 
	.dwpsn	file "../ST7735.c",line 806,column 3,is_stmt,isa 1
;----------------------------------------------------------------------
; 806 | writedata(0x00);                                                       
;----------------------------------------------------------------------
        MOVS      A1, #0                ; [DPU_V7M3_PIPE] |806| 
$C$DW$82	.dwtag  DW_TAG_TI_branch
	.dwattr $C$DW$82, DW_AT_low_pc(0x00)
	.dwattr $C$DW$82, DW_AT_name("writedata")
	.dwattr $C$DW$82, DW_AT_TI_call

        BL        writedata             ; [DPU_V7M3_PIPE] |806| 
        ; CALL OCCURS {writedata }       ; [] |806| 
	.dwpsn	file "../ST7735.c",line 807,column 3,is_stmt,isa 1
;----------------------------------------------------------------------
; 807 | writedata(x0+ColStart);     // XSTART                                  
;----------------------------------------------------------------------
        LDR       A2, $C$CON4           ; [DPU_V7M3_PIPE] |807| 
        LDRB      A1, [SP, #0]          ; [DPU_V7M3_PIPE] |807| 
        LDRB      A2, [A2, #0]          ; [DPU_V7M3_PIPE] |807| 
        ADDS      A1, A1, A2            ; [DPU_V7M3_PIPE] |807| 
        UXTB      A1, A1                ; [DPU_V7M3_PIPE] |807| 
$C$DW$83	.dwtag  DW_TAG_TI_branch
	.dwattr $C$DW$83, DW_AT_low_pc(0x00)
	.dwattr $C$DW$83, DW_AT_name("writedata")
	.dwattr $C$DW$83, DW_AT_TI_call

        BL        writedata             ; [DPU_V7M3_PIPE] |807| 
        ; CALL OCCURS {writedata }       ; [] |807| 
	.dwpsn	file "../ST7735.c",line 808,column 3,is_stmt,isa 1
;----------------------------------------------------------------------
; 808 | writedata(0x00);                                                       
;----------------------------------------------------------------------
        MOVS      A1, #0                ; [DPU_V7M3_PIPE] |808| 
$C$DW$84	.dwtag  DW_TAG_TI_branch
	.dwattr $C$DW$84, DW_AT_low_pc(0x00)
	.dwattr $C$DW$84, DW_AT_name("writedata")
	.dwattr $C$DW$84, DW_AT_TI_call

        BL        writedata             ; [DPU_V7M3_PIPE] |808| 
        ; CALL OCCURS {writedata }       ; [] |808| 
	.dwpsn	file "../ST7735.c",line 809,column 3,is_stmt,isa 1
;----------------------------------------------------------------------
; 809 | writedata(x1+ColStart);     // XEND                                    
;----------------------------------------------------------------------
        LDR       A2, $C$CON4           ; [DPU_V7M3_PIPE] |809| 
        LDRB      A1, [SP, #2]          ; [DPU_V7M3_PIPE] |809| 
        LDRB      A2, [A2, #0]          ; [DPU_V7M3_PIPE] |809| 
        ADDS      A1, A1, A2            ; [DPU_V7M3_PIPE] |809| 
        UXTB      A1, A1                ; [DPU_V7M3_PIPE] |809| 
$C$DW$85	.dwtag  DW_TAG_TI_branch
	.dwattr $C$DW$85, DW_AT_low_pc(0x00)
	.dwattr $C$DW$85, DW_AT_name("writedata")
	.dwattr $C$DW$85, DW_AT_TI_call

        BL        writedata             ; [DPU_V7M3_PIPE] |809| 
        ; CALL OCCURS {writedata }       ; [] |809| 
	.dwpsn	file "../ST7735.c",line 811,column 3,is_stmt,isa 1
;----------------------------------------------------------------------
; 811 | writecommand(ST7735_RASET); // Row addr set                            
;----------------------------------------------------------------------
        MOVS      A1, #43               ; [DPU_V7M3_PIPE] |811| 
$C$DW$86	.dwtag  DW_TAG_TI_branch
	.dwattr $C$DW$86, DW_AT_low_pc(0x00)
	.dwattr $C$DW$86, DW_AT_name("writecommand")
	.dwattr $C$DW$86, DW_AT_TI_call

        BL        writecommand          ; [DPU_V7M3_PIPE] |811| 
        ; CALL OCCURS {writecommand }    ; [] |811| 
;* --------------------------------------------------------------------------*
	.dwpsn	file "../ST7735.c",line 812,column 3,is_stmt,isa 1
;----------------------------------------------------------------------
; 812 | writedata(0x00);                                                       
;----------------------------------------------------------------------
        MOVS      A1, #0                ; [DPU_V7M3_PIPE] |812| 
$C$DW$87	.dwtag  DW_TAG_TI_branch
	.dwattr $C$DW$87, DW_AT_low_pc(0x00)
	.dwattr $C$DW$87, DW_AT_name("writedata")
	.dwattr $C$DW$87, DW_AT_TI_call

        BL        writedata             ; [DPU_V7M3_PIPE] |812| 
        ; CALL OCCURS {writedata }       ; [] |812| 
	.dwpsn	file "../ST7735.c",line 813,column 3,is_stmt,isa 1
;----------------------------------------------------------------------
; 813 | writedata(y0+RowStart);     // YSTART                                  
;----------------------------------------------------------------------
        LDR       A2, $C$CON5           ; [DPU_V7M3_PIPE] |813| 
        LDRB      A1, [SP, #1]          ; [DPU_V7M3_PIPE] |813| 
        LDRB      A2, [A2, #0]          ; [DPU_V7M3_PIPE] |813| 
        ADDS      A1, A1, A2            ; [DPU_V7M3_PIPE] |813| 
        UXTB      A1, A1                ; [DPU_V7M3_PIPE] |813| 
$C$DW$88	.dwtag  DW_TAG_TI_branch
	.dwattr $C$DW$88, DW_AT_low_pc(0x00)
	.dwattr $C$DW$88, DW_AT_name("writedata")
	.dwattr $C$DW$88, DW_AT_TI_call

        BL        writedata             ; [DPU_V7M3_PIPE] |813| 
        ; CALL OCCURS {writedata }       ; [] |813| 
	.dwpsn	file "../ST7735.c",line 814,column 3,is_stmt,isa 1
;----------------------------------------------------------------------
; 814 | writedata(0x00);                                                       
;----------------------------------------------------------------------
        MOVS      A1, #0                ; [DPU_V7M3_PIPE] |814| 
$C$DW$89	.dwtag  DW_TAG_TI_branch
	.dwattr $C$DW$89, DW_AT_low_pc(0x00)
	.dwattr $C$DW$89, DW_AT_name("writedata")
	.dwattr $C$DW$89, DW_AT_TI_call

        BL        writedata             ; [DPU_V7M3_PIPE] |814| 
        ; CALL OCCURS {writedata }       ; [] |814| 
	.dwpsn	file "../ST7735.c",line 815,column 3,is_stmt,isa 1
;----------------------------------------------------------------------
; 815 | writedata(y1+RowStart);     // YEND                                    
;----------------------------------------------------------------------
        LDR       A2, $C$CON5           ; [DPU_V7M3_PIPE] |815| 
        LDRB      A1, [SP, #3]          ; [DPU_V7M3_PIPE] |815| 
        LDRB      A2, [A2, #0]          ; [DPU_V7M3_PIPE] |815| 
        ADDS      A1, A1, A2            ; [DPU_V7M3_PIPE] |815| 
        UXTB      A1, A1                ; [DPU_V7M3_PIPE] |815| 
$C$DW$90	.dwtag  DW_TAG_TI_branch
	.dwattr $C$DW$90, DW_AT_low_pc(0x00)
	.dwattr $C$DW$90, DW_AT_name("writedata")
	.dwattr $C$DW$90, DW_AT_TI_call

        BL        writedata             ; [DPU_V7M3_PIPE] |815| 
        ; CALL OCCURS {writedata }       ; [] |815| 
	.dwpsn	file "../ST7735.c",line 817,column 3,is_stmt,isa 1
;----------------------------------------------------------------------
; 817 | writecommand(ST7735_RAMWR); // write to RAM                            
;----------------------------------------------------------------------
        MOVS      A1, #44               ; [DPU_V7M3_PIPE] |817| 
$C$DW$91	.dwtag  DW_TAG_TI_branch
	.dwattr $C$DW$91, DW_AT_low_pc(0x00)
	.dwattr $C$DW$91, DW_AT_name("writecommand")
	.dwattr $C$DW$91, DW_AT_TI_call

        BL        writecommand          ; [DPU_V7M3_PIPE] |817| 
        ; CALL OCCURS {writecommand }    ; [] |817| 
	.dwpsn	file "../ST7735.c",line 818,column 1,is_stmt,isa 1
$C$DW$92	.dwtag  DW_TAG_TI_branch
	.dwattr $C$DW$92, DW_AT_low_pc(0x00)
	.dwattr $C$DW$92, DW_AT_TI_return

        POP       {A4, PC}              ; [DPU_V7M3_PIPE] 
	.dwcfi	cfa_offset, 0
	.dwcfi	restore_reg, 3
        ; BRANCH OCCURS                  ; [] 
	.dwattr $C$DW$72, DW_AT_TI_end_file("../ST7735.c")
	.dwattr $C$DW$72, DW_AT_TI_end_line(0x332)
	.dwattr $C$DW$72, DW_AT_TI_end_column(0x01)
	.dwendentry
	.dwendtag $C$DW$72

;******************************************************************************
;* CONSTANT TABLE                                                             *
;******************************************************************************
	.sect	".text"
	.align	4
||$C$CON1||:	.bits		0x4000800c,32

	.align	4
||$C$CON2||:	.bits		0x40004100,32

	.align	4
||$C$CON3||:	.bits		0x40008008,32

	.sect	".text"
	.clink
	.thumbfunc pushColor
	.thumb

$C$DW$93	.dwtag  DW_TAG_subprogram
	.dwattr $C$DW$93, DW_AT_name("pushColor")
	.dwattr $C$DW$93, DW_AT_low_pc(pushColor)
	.dwattr $C$DW$93, DW_AT_high_pc(0x00)
	.dwattr $C$DW$93, DW_AT_TI_symbol_name("pushColor")
	.dwattr $C$DW$93, DW_AT_TI_begin_file("../ST7735.c")
	.dwattr $C$DW$93, DW_AT_TI_begin_line(0x337)
	.dwattr $C$DW$93, DW_AT_TI_begin_column(0x0d)
	.dwattr $C$DW$93, DW_AT_decl_file("../ST7735.c")
	.dwattr $C$DW$93, DW_AT_decl_line(0x337)
	.dwattr $C$DW$93, DW_AT_decl_column(0x0d)
	.dwattr $C$DW$93, DW_AT_TI_max_frame_size(0x08)
	.dwpsn	file "../ST7735.c",line 823,column 39,is_stmt,address pushColor,isa 1

	.dwfde $C$DW$CIE, pushColor
$C$DW$94	.dwtag  DW_TAG_formal_parameter
	.dwattr $C$DW$94, DW_AT_name("color")
	.dwattr $C$DW$94, DW_AT_TI_symbol_name("color")
	.dwattr $C$DW$94, DW_AT_type(*$C$DW$T$10)
	.dwattr $C$DW$94, DW_AT_location[DW_OP_reg0]


;*****************************************************************************
;* FUNCTION NAME: pushColor                                                  *
;*                                                                           *
;*   Regs Modified     : A1,A2,A4,SP,LR,SR,FPEXC,FPSCR                       *
;*   Regs Used         : A1,A2,A4,SP,LR,SR,FPEXC,FPSCR                       *
;*   Local Frame Size  : 0 Args + 4 Auto + 4 Save = 8 byte                   *
;*****************************************************************************
pushColor:
;* --------------------------------------------------------------------------*
	.dwcfi	cfa_offset, 0
        PUSH      {A4, LR}              ; [DPU_V7M3_PIPE] 
	.dwcfi	cfa_offset, 8
	.dwcfi	save_reg_to_mem, 14, -4
	.dwcfi	save_reg_to_mem, 3, -8
$C$DW$95	.dwtag  DW_TAG_variable
	.dwattr $C$DW$95, DW_AT_name("color")
	.dwattr $C$DW$95, DW_AT_TI_symbol_name("color")
	.dwattr $C$DW$95, DW_AT_type(*$C$DW$T$46)
	.dwattr $C$DW$95, DW_AT_location[DW_OP_breg13 0]

;----------------------------------------------------------------------
; 823 | void static pushColor(uint16_t color) {                                
;----------------------------------------------------------------------
        STRH      A1, [SP, #0]          ; [DPU_V7M3_PIPE] |823| 
	.dwpsn	file "../ST7735.c",line 824,column 3,is_stmt,isa 1
;----------------------------------------------------------------------
; 824 | writedata((uint8_t)(color >> 8));                                      
;----------------------------------------------------------------------
        LDRH      A1, [SP, #0]          ; [DPU_V7M3_PIPE] |824| 
        UXTB      A1, A1, ROR #8        ; [DPU_V7M3_PIPE] |824| 
$C$DW$96	.dwtag  DW_TAG_TI_branch
	.dwattr $C$DW$96, DW_AT_low_pc(0x00)
	.dwattr $C$DW$96, DW_AT_name("writedata")
	.dwattr $C$DW$96, DW_AT_TI_call

        BL        writedata             ; [DPU_V7M3_PIPE] |824| 
        ; CALL OCCURS {writedata }       ; [] |824| 
	.dwpsn	file "../ST7735.c",line 825,column 3,is_stmt,isa 1
;----------------------------------------------------------------------
; 825 | writedata((uint8_t)color);                                             
;----------------------------------------------------------------------
        LDRB      A1, [SP, #0]          ; [DPU_V7M3_PIPE] |825| 
$C$DW$97	.dwtag  DW_TAG_TI_branch
	.dwattr $C$DW$97, DW_AT_low_pc(0x00)
	.dwattr $C$DW$97, DW_AT_name("writedata")
	.dwattr $C$DW$97, DW_AT_TI_call

        BL        writedata             ; [DPU_V7M3_PIPE] |825| 
        ; CALL OCCURS {writedata }       ; [] |825| 
	.dwpsn	file "../ST7735.c",line 826,column 1,is_stmt,isa 1
$C$DW$98	.dwtag  DW_TAG_TI_branch
	.dwattr $C$DW$98, DW_AT_low_pc(0x00)
	.dwattr $C$DW$98, DW_AT_TI_return

        POP       {A4, PC}              ; [DPU_V7M3_PIPE] 
	.dwcfi	cfa_offset, 0
	.dwcfi	restore_reg, 3
        ; BRANCH OCCURS                  ; [] 
	.dwattr $C$DW$93, DW_AT_TI_end_file("../ST7735.c")
	.dwattr $C$DW$93, DW_AT_TI_end_line(0x33a)
	.dwattr $C$DW$93, DW_AT_TI_end_column(0x01)
	.dwendentry
	.dwendtag $C$DW$93

	.sect	".text"
	.clink
	.thumbfunc ST7735_DrawPixel
	.thumb
	.global	ST7735_DrawPixel

$C$DW$99	.dwtag  DW_TAG_subprogram
	.dwattr $C$DW$99, DW_AT_name("ST7735_DrawPixel")
	.dwattr $C$DW$99, DW_AT_low_pc(ST7735_DrawPixel)
	.dwattr $C$DW$99, DW_AT_high_pc(0x00)
	.dwattr $C$DW$99, DW_AT_TI_symbol_name("ST7735_DrawPixel")
	.dwattr $C$DW$99, DW_AT_external
	.dwattr $C$DW$99, DW_AT_TI_begin_file("../ST7735.c")
	.dwattr $C$DW$99, DW_AT_TI_begin_line(0x348)
	.dwattr $C$DW$99, DW_AT_TI_begin_column(0x06)
	.dwattr $C$DW$99, DW_AT_decl_file("../ST7735.c")
	.dwattr $C$DW$99, DW_AT_decl_line(0x348)
	.dwattr $C$DW$99, DW_AT_decl_column(0x06)
	.dwattr $C$DW$99, DW_AT_TI_max_frame_size(0x10)
	.dwpsn	file "../ST7735.c",line 840,column 61,is_stmt,address ST7735_DrawPixel,isa 1

	.dwfde $C$DW$CIE, ST7735_DrawPixel
$C$DW$100	.dwtag  DW_TAG_formal_parameter
	.dwattr $C$DW$100, DW_AT_name("x")
	.dwattr $C$DW$100, DW_AT_TI_symbol_name("x")
	.dwattr $C$DW$100, DW_AT_type(*$C$DW$T$10)
	.dwattr $C$DW$100, DW_AT_location[DW_OP_reg0]

$C$DW$101	.dwtag  DW_TAG_formal_parameter
	.dwattr $C$DW$101, DW_AT_name("y")
	.dwattr $C$DW$101, DW_AT_TI_symbol_name("y")
	.dwattr $C$DW$101, DW_AT_type(*$C$DW$T$10)
	.dwattr $C$DW$101, DW_AT_location[DW_OP_reg1]

$C$DW$102	.dwtag  DW_TAG_formal_parameter
	.dwattr $C$DW$102, DW_AT_name("color")
	.dwattr $C$DW$102, DW_AT_TI_symbol_name("color")
	.dwattr $C$DW$102, DW_AT_type(*$C$DW$T$10)
	.dwattr $C$DW$102, DW_AT_location[DW_OP_reg2]


;*****************************************************************************
;* FUNCTION NAME: ST7735_DrawPixel                                           *
;*                                                                           *
;*   Regs Modified     : A1,A2,A3,A4,SP,LR,SR,FPEXC,FPSCR                    *
;*   Regs Used         : A1,A2,A3,A4,SP,LR,SR,FPEXC,FPSCR                    *
;*   Local Frame Size  : 0 Args + 8 Auto + 4 Save = 12 byte                  *
;*****************************************************************************
ST7735_DrawPixel:
;* --------------------------------------------------------------------------*
	.dwcfi	cfa_offset, 0
        PUSH      {A2, A3, A4, LR}      ; [DPU_V7M3_PIPE] 
	.dwcfi	cfa_offset, 16
	.dwcfi	save_reg_to_mem, 14, -4
	.dwcfi	save_reg_to_mem, 3, -8
	.dwcfi	save_reg_to_mem, 2, -12
	.dwcfi	save_reg_to_mem, 1, -16
$C$DW$103	.dwtag  DW_TAG_variable
	.dwattr $C$DW$103, DW_AT_name("x")
	.dwattr $C$DW$103, DW_AT_TI_symbol_name("x")
	.dwattr $C$DW$103, DW_AT_type(*$C$DW$T$50)
	.dwattr $C$DW$103, DW_AT_location[DW_OP_breg13 0]

$C$DW$104	.dwtag  DW_TAG_variable
	.dwattr $C$DW$104, DW_AT_name("y")
	.dwattr $C$DW$104, DW_AT_TI_symbol_name("y")
	.dwattr $C$DW$104, DW_AT_type(*$C$DW$T$50)
	.dwattr $C$DW$104, DW_AT_location[DW_OP_breg13 2]

$C$DW$105	.dwtag  DW_TAG_variable
	.dwattr $C$DW$105, DW_AT_name("color")
	.dwattr $C$DW$105, DW_AT_TI_symbol_name("color")
	.dwattr $C$DW$105, DW_AT_type(*$C$DW$T$46)
	.dwattr $C$DW$105, DW_AT_location[DW_OP_breg13 4]

;----------------------------------------------------------------------
; 840 | void ST7735_DrawPixel(int16_t x, int16_t y, uint16_t color) {          
;----------------------------------------------------------------------
        STRH      A3, [SP, #4]          ; [DPU_V7M3_PIPE] |840| 
        STRH      A2, [SP, #2]          ; [DPU_V7M3_PIPE] |840| 
        STRH      A1, [SP, #0]          ; [DPU_V7M3_PIPE] |840| 
	.dwpsn	file "../ST7735.c",line 842,column 3,is_stmt,isa 1
;----------------------------------------------------------------------
; 842 | if((x < 0) || (x >= _width) || (y < 0) || (y >= _height)) return;      
; 844 | //  setAddrWindow(x,y,x+1,y+1); // original code, bug???               
;----------------------------------------------------------------------
        LDRSH     A1, [SP, #0]          ; [DPU_V7M3_PIPE] |842| 
        CMP       A1, #0                ; [DPU_V7M3_PIPE] |842| 
        BMI       ||$C$L19||            ; [DPU_V7M3_PIPE] |842| 
        ; BRANCHCC OCCURS {||$C$L19||}   ; [] |842| 
;* --------------------------------------------------------------------------*
        LDR       A1, $C$CON30          ; [DPU_V7M3_PIPE] |842| 
        LDRSH     A2, [SP, #0]          ; [DPU_V7M3_PIPE] |842| 
        LDRSH     A1, [A1, #0]          ; [DPU_V7M3_PIPE] |842| 
        CMP       A1, A2                ; [DPU_V7M3_PIPE] |842| 
        BLE       ||$C$L19||            ; [DPU_V7M3_PIPE] |842| 
        ; BRANCHCC OCCURS {||$C$L19||}   ; [] |842| 
;* --------------------------------------------------------------------------*
        LDRSH     A1, [SP, #2]          ; [DPU_V7M3_PIPE] |842| 
        CMP       A1, #0                ; [DPU_V7M3_PIPE] |842| 
        BMI       ||$C$L19||            ; [DPU_V7M3_PIPE] |842| 
        ; BRANCHCC OCCURS {||$C$L19||}   ; [] |842| 
;* --------------------------------------------------------------------------*
        LDR       A1, $C$CON31          ; [DPU_V7M3_PIPE] |842| 
        LDRSH     A2, [SP, #2]          ; [DPU_V7M3_PIPE] |842| 
        LDRSH     A1, [A1, #0]          ; [DPU_V7M3_PIPE] |842| 
        CMP       A1, A2                ; [DPU_V7M3_PIPE] |842| 
        BGT       ||$C$L18||            ; [DPU_V7M3_PIPE] |842| 
        ; BRANCHCC OCCURS {||$C$L18||}   ; [] |842| 
;* --------------------------------------------------------------------------*
        B         ||$C$L19||            ; [DPU_V7M3_PIPE] |842| 
        ; BRANCH OCCURS {||$C$L19||}     ; [] |842| 
;* --------------------------------------------------------------------------*
;* --------------------------------------------------------------------------*
||$C$L18||:    
	.dwpsn	file "../ST7735.c",line 845,column 3,is_stmt,isa 1
;----------------------------------------------------------------------
; 845 | setAddrWindow(x,y,x,y);                                                
;----------------------------------------------------------------------
        LDRB      A1, [SP, #0]          ; [DPU_V7M3_PIPE] |845| 
        LDRB      A2, [SP, #2]          ; [DPU_V7M3_PIPE] |845| 
        LDRB      A3, [SP, #0]          ; [DPU_V7M3_PIPE] |845| 
        LDRB      A4, [SP, #2]          ; [DPU_V7M3_PIPE] |845| 
$C$DW$106	.dwtag  DW_TAG_TI_branch
	.dwattr $C$DW$106, DW_AT_low_pc(0x00)
	.dwattr $C$DW$106, DW_AT_name("setAddrWindow")
	.dwattr $C$DW$106, DW_AT_TI_call

        BL        setAddrWindow         ; [DPU_V7M3_PIPE] |845| 
        ; CALL OCCURS {setAddrWindow }   ; [] |845| 
	.dwpsn	file "../ST7735.c",line 847,column 3,is_stmt,isa 1
;----------------------------------------------------------------------
; 847 | pushColor(color);                                                      
;----------------------------------------------------------------------
        LDRH      A1, [SP, #4]          ; [DPU_V7M3_PIPE] |847| 
$C$DW$107	.dwtag  DW_TAG_TI_branch
	.dwattr $C$DW$107, DW_AT_low_pc(0x00)
	.dwattr $C$DW$107, DW_AT_name("pushColor")
	.dwattr $C$DW$107, DW_AT_TI_call

        BL        pushColor             ; [DPU_V7M3_PIPE] |847| 
        ; CALL OCCURS {pushColor }       ; [] |847| 
	.dwpsn	file "../ST7735.c",line 848,column 1,is_stmt,isa 1
;* --------------------------------------------------------------------------*
||$C$L19||:    
$C$DW$108	.dwtag  DW_TAG_TI_branch
	.dwattr $C$DW$108, DW_AT_low_pc(0x00)
	.dwattr $C$DW$108, DW_AT_TI_return

        POP       {A2, A3, A4, PC}      ; [DPU_V7M3_PIPE] 
	.dwcfi	cfa_offset, 0
	.dwcfi	restore_reg, 3
	.dwcfi	restore_reg, 2
	.dwcfi	restore_reg, 1
        ; BRANCH OCCURS                  ; [] 
	.dwattr $C$DW$99, DW_AT_TI_end_file("../ST7735.c")
	.dwattr $C$DW$99, DW_AT_TI_end_line(0x350)
	.dwattr $C$DW$99, DW_AT_TI_end_column(0x01)
	.dwendentry
	.dwendtag $C$DW$99

	.sect	".text"
	.clink
	.thumbfunc ST7735_DrawFastVLine
	.thumb
	.global	ST7735_DrawFastVLine

$C$DW$109	.dwtag  DW_TAG_subprogram
	.dwattr $C$DW$109, DW_AT_name("ST7735_DrawFastVLine")
	.dwattr $C$DW$109, DW_AT_low_pc(ST7735_DrawFastVLine)
	.dwattr $C$DW$109, DW_AT_high_pc(0x00)
	.dwattr $C$DW$109, DW_AT_TI_symbol_name("ST7735_DrawFastVLine")
	.dwattr $C$DW$109, DW_AT_external
	.dwattr $C$DW$109, DW_AT_TI_begin_file("../ST7735.c")
	.dwattr $C$DW$109, DW_AT_TI_begin_line(0x35c)
	.dwattr $C$DW$109, DW_AT_TI_begin_column(0x06)
	.dwattr $C$DW$109, DW_AT_decl_file("../ST7735.c")
	.dwattr $C$DW$109, DW_AT_decl_line(0x35c)
	.dwattr $C$DW$109, DW_AT_decl_column(0x06)
	.dwattr $C$DW$109, DW_AT_TI_max_frame_size(0x18)
	.dwpsn	file "../ST7735.c",line 860,column 76,is_stmt,address ST7735_DrawFastVLine,isa 1

	.dwfde $C$DW$CIE, ST7735_DrawFastVLine
$C$DW$110	.dwtag  DW_TAG_formal_parameter
	.dwattr $C$DW$110, DW_AT_name("x")
	.dwattr $C$DW$110, DW_AT_TI_symbol_name("x")
	.dwattr $C$DW$110, DW_AT_type(*$C$DW$T$10)
	.dwattr $C$DW$110, DW_AT_location[DW_OP_reg0]

$C$DW$111	.dwtag  DW_TAG_formal_parameter
	.dwattr $C$DW$111, DW_AT_name("y")
	.dwattr $C$DW$111, DW_AT_TI_symbol_name("y")
	.dwattr $C$DW$111, DW_AT_type(*$C$DW$T$10)
	.dwattr $C$DW$111, DW_AT_location[DW_OP_reg1]

$C$DW$112	.dwtag  DW_TAG_formal_parameter
	.dwattr $C$DW$112, DW_AT_name("h")
	.dwattr $C$DW$112, DW_AT_TI_symbol_name("h")
	.dwattr $C$DW$112, DW_AT_type(*$C$DW$T$10)
	.dwattr $C$DW$112, DW_AT_location[DW_OP_reg2]

$C$DW$113	.dwtag  DW_TAG_formal_parameter
	.dwattr $C$DW$113, DW_AT_name("color")
	.dwattr $C$DW$113, DW_AT_TI_symbol_name("color")
	.dwattr $C$DW$113, DW_AT_type(*$C$DW$T$10)
	.dwattr $C$DW$113, DW_AT_location[DW_OP_reg3]


;*****************************************************************************
;* FUNCTION NAME: ST7735_DrawFastVLine                                       *
;*                                                                           *
;*   Regs Modified     : A1,A2,A3,A4,V1,SP,LR,SR,FPEXC,FPSCR                 *
;*   Regs Used         : A1,A2,A3,A4,V1,SP,LR,SR,FPEXC,FPSCR                 *
;*   Local Frame Size  : 0 Args + 12 Auto + 8 Save = 20 byte                 *
;*****************************************************************************
ST7735_DrawFastVLine:
;* --------------------------------------------------------------------------*
	.dwcfi	cfa_offset, 0
        PUSH      {A1, A2, A3, A4, V1, LR} ; [DPU_V7M3_PIPE] 
	.dwcfi	cfa_offset, 24
	.dwcfi	save_reg_to_mem, 14, -4
	.dwcfi	save_reg_to_mem, 4, -8
	.dwcfi	save_reg_to_mem, 3, -12
	.dwcfi	save_reg_to_mem, 2, -16
	.dwcfi	save_reg_to_mem, 1, -20
	.dwcfi	save_reg_to_mem, 0, -24
$C$DW$114	.dwtag  DW_TAG_variable
	.dwattr $C$DW$114, DW_AT_name("x")
	.dwattr $C$DW$114, DW_AT_TI_symbol_name("x")
	.dwattr $C$DW$114, DW_AT_type(*$C$DW$T$50)
	.dwattr $C$DW$114, DW_AT_location[DW_OP_breg13 0]

$C$DW$115	.dwtag  DW_TAG_variable
	.dwattr $C$DW$115, DW_AT_name("y")
	.dwattr $C$DW$115, DW_AT_TI_symbol_name("y")
	.dwattr $C$DW$115, DW_AT_type(*$C$DW$T$50)
	.dwattr $C$DW$115, DW_AT_location[DW_OP_breg13 2]

$C$DW$116	.dwtag  DW_TAG_variable
	.dwattr $C$DW$116, DW_AT_name("h")
	.dwattr $C$DW$116, DW_AT_TI_symbol_name("h")
	.dwattr $C$DW$116, DW_AT_type(*$C$DW$T$50)
	.dwattr $C$DW$116, DW_AT_location[DW_OP_breg13 4]

$C$DW$117	.dwtag  DW_TAG_variable
	.dwattr $C$DW$117, DW_AT_name("color")
	.dwattr $C$DW$117, DW_AT_TI_symbol_name("color")
	.dwattr $C$DW$117, DW_AT_type(*$C$DW$T$46)
	.dwattr $C$DW$117, DW_AT_location[DW_OP_breg13 6]

$C$DW$118	.dwtag  DW_TAG_variable
	.dwattr $C$DW$118, DW_AT_name("hi")
	.dwattr $C$DW$118, DW_AT_TI_symbol_name("hi")
	.dwattr $C$DW$118, DW_AT_type(*$C$DW$T$27)
	.dwattr $C$DW$118, DW_AT_location[DW_OP_breg13 8]

$C$DW$119	.dwtag  DW_TAG_variable
	.dwattr $C$DW$119, DW_AT_name("lo")
	.dwattr $C$DW$119, DW_AT_TI_symbol_name("lo")
	.dwattr $C$DW$119, DW_AT_type(*$C$DW$T$27)
	.dwattr $C$DW$119, DW_AT_location[DW_OP_breg13 9]

;----------------------------------------------------------------------
; 860 | void ST7735_DrawFastVLine(int16_t x, int16_t y, int16_t h, uint16_t col
;     | or) {                                                                  
;----------------------------------------------------------------------
        STRH      A4, [SP, #6]          ; [DPU_V7M3_PIPE] |860| 
        STRH      A3, [SP, #4]          ; [DPU_V7M3_PIPE] |860| 
        STRH      A2, [SP, #2]          ; [DPU_V7M3_PIPE] |860| 
        STRH      A1, [SP, #0]          ; [DPU_V7M3_PIPE] |860| 
	.dwpsn	file "../ST7735.c",line 861,column 14,is_stmt,isa 1
;----------------------------------------------------------------------
; 861 | uint8_t hi = color >> 8, lo = color;                                   
;----------------------------------------------------------------------
        LDRH      A1, [SP, #6]          ; [DPU_V7M3_PIPE] |861| 
        ASRS      A1, A1, #8            ; [DPU_V7M3_PIPE] |861| 
        STRB      A1, [SP, #8]          ; [DPU_V7M3_PIPE] |861| 
	.dwpsn	file "../ST7735.c",line 861,column 31,is_stmt,isa 1
;----------------------------------------------------------------------
; 863 | // Rudimentary clipping                                                
;----------------------------------------------------------------------
        LDRB      A1, [SP, #6]          ; [DPU_V7M3_PIPE] |861| 
        STRB      A1, [SP, #9]          ; [DPU_V7M3_PIPE] |861| 
	.dwpsn	file "../ST7735.c",line 864,column 3,is_stmt,isa 1
;----------------------------------------------------------------------
; 864 | if((x >= _width) || (y >= _height)) return;                            
;----------------------------------------------------------------------
        LDR       A1, $C$CON30          ; [DPU_V7M3_PIPE] |864| 
        LDRSH     A2, [SP, #0]          ; [DPU_V7M3_PIPE] |864| 
        LDRSH     A1, [A1, #0]          ; [DPU_V7M3_PIPE] |864| 
        CMP       A1, A2                ; [DPU_V7M3_PIPE] |864| 
        BLE       ||$C$L24||            ; [DPU_V7M3_PIPE] |864| 
        ; BRANCHCC OCCURS {||$C$L24||}   ; [] |864| 
;* --------------------------------------------------------------------------*
        LDR       A1, $C$CON31          ; [DPU_V7M3_PIPE] |864| 
        LDRSH     A2, [SP, #2]          ; [DPU_V7M3_PIPE] |864| 
        LDRSH     A1, [A1, #0]          ; [DPU_V7M3_PIPE] |864| 
        CMP       A1, A2                ; [DPU_V7M3_PIPE] |864| 
        BGT       ||$C$L20||            ; [DPU_V7M3_PIPE] |864| 
        ; BRANCHCC OCCURS {||$C$L20||}   ; [] |864| 
;* --------------------------------------------------------------------------*
        B         ||$C$L24||            ; [DPU_V7M3_PIPE] |864| 
        ; BRANCH OCCURS {||$C$L24||}     ; [] |864| 
;* --------------------------------------------------------------------------*
;* --------------------------------------------------------------------------*
||$C$L20||:    
	.dwpsn	file "../ST7735.c",line 865,column 3,is_stmt,isa 1
;----------------------------------------------------------------------
; 865 | if((y+h-1) >= _height) h = _height-y;                                  
;----------------------------------------------------------------------
        LDR       A2, $C$CON31          ; [DPU_V7M3_PIPE] |865| 
        LDRSH     A3, [SP, #4]          ; [DPU_V7M3_PIPE] |865| 
        LDRSH     A1, [SP, #2]          ; [DPU_V7M3_PIPE] |865| 
        LDRSH     A2, [A2, #0]          ; [DPU_V7M3_PIPE] |865| 
        ADDS      A1, A1, A3            ; [DPU_V7M3_PIPE] |865| 
        SUBS      A1, A1, #1            ; [DPU_V7M3_PIPE] |865| 
        CMP       A2, A1                ; [DPU_V7M3_PIPE] |865| 
        BGT       ||$C$L21||            ; [DPU_V7M3_PIPE] |865| 
        ; BRANCHCC OCCURS {||$C$L21||}   ; [] |865| 
;* --------------------------------------------------------------------------*
	.dwpsn	file "../ST7735.c",line 865,column 26,is_stmt,isa 1
        LDR       A1, $C$CON31          ; [DPU_V7M3_PIPE] |865| 
        LDRSH     A2, [SP, #2]          ; [DPU_V7M3_PIPE] |865| 
        LDRSH     A1, [A1, #0]          ; [DPU_V7M3_PIPE] |865| 
        SUBS      A1, A1, A2            ; [DPU_V7M3_PIPE] |865| 
        STRH      A1, [SP, #4]          ; [DPU_V7M3_PIPE] |865| 
;* --------------------------------------------------------------------------*
||$C$L21||:    
	.dwpsn	file "../ST7735.c",line 866,column 3,is_stmt,isa 1
;----------------------------------------------------------------------
; 866 | setAddrWindow(x, y, x, y+h-1);                                         
;----------------------------------------------------------------------
        LDRSH     V1, [SP, #4]          ; [DPU_V7M3_PIPE] |866| 
        LDRSH     A4, [SP, #2]          ; [DPU_V7M3_PIPE] |866| 
        LDRB      A1, [SP, #0]          ; [DPU_V7M3_PIPE] |866| 
        LDRB      A2, [SP, #2]          ; [DPU_V7M3_PIPE] |866| 
        LDRB      A3, [SP, #0]          ; [DPU_V7M3_PIPE] |866| 
        ADDS      A4, A4, V1            ; [DPU_V7M3_PIPE] |866| 
        SUBS      A4, A4, #1            ; [DPU_V7M3_PIPE] |866| 
        UXTB      A4, A4                ; [DPU_V7M3_PIPE] |866| 
$C$DW$120	.dwtag  DW_TAG_TI_branch
	.dwattr $C$DW$120, DW_AT_low_pc(0x00)
	.dwattr $C$DW$120, DW_AT_name("setAddrWindow")
	.dwattr $C$DW$120, DW_AT_TI_call

        BL        setAddrWindow         ; [DPU_V7M3_PIPE] |866| 
        ; CALL OCCURS {setAddrWindow }   ; [] |866| 
	.dwpsn	file "../ST7735.c",line 868,column 3,is_stmt,isa 1
;----------------------------------------------------------------------
; 868 | while (h--) {                                                          
;----------------------------------------------------------------------
        B         ||$C$L23||            ; [DPU_V7M3_PIPE] |868| 
        ; BRANCH OCCURS {||$C$L23||}     ; [] |868| 
;* --------------------------------------------------------------------------*
||$C$L22||:    
	.dwpsn	file "../ST7735.c",line 869,column 5,is_stmt,isa 1
;----------------------------------------------------------------------
; 869 | writedata(hi);                                                         
;----------------------------------------------------------------------
        LDRB      A1, [SP, #8]          ; [DPU_V7M3_PIPE] |869| 
$C$DW$121	.dwtag  DW_TAG_TI_branch
	.dwattr $C$DW$121, DW_AT_low_pc(0x00)
	.dwattr $C$DW$121, DW_AT_name("writedata")
	.dwattr $C$DW$121, DW_AT_TI_call

        BL        writedata             ; [DPU_V7M3_PIPE] |869| 
        ; CALL OCCURS {writedata }       ; [] |869| 
	.dwpsn	file "../ST7735.c",line 870,column 5,is_stmt,isa 1
;----------------------------------------------------------------------
; 870 | writedata(lo);                                                         
;----------------------------------------------------------------------
        LDRB      A1, [SP, #9]          ; [DPU_V7M3_PIPE] |870| 
$C$DW$122	.dwtag  DW_TAG_TI_branch
	.dwattr $C$DW$122, DW_AT_low_pc(0x00)
	.dwattr $C$DW$122, DW_AT_name("writedata")
	.dwattr $C$DW$122, DW_AT_TI_call

        BL        writedata             ; [DPU_V7M3_PIPE] |870| 
        ; CALL OCCURS {writedata }       ; [] |870| 
;* --------------------------------------------------------------------------*
;*   BEGIN LOOP ||$C$L23||
;* --------------------------------------------------------------------------*
||$C$L23||:    
	.dwpsn	file "../ST7735.c",line 868,column 3,is_stmt,isa 1
        LDRSH     A1, [SP, #4]          ; [DPU_V7M3_PIPE] |868| 
        SUBS      A2, A1, #1            ; [DPU_V7M3_PIPE] |868| 
        CMP       A1, #0                ; [DPU_V7M3_PIPE] |868| 
        STRH      A2, [SP, #4]          ; [DPU_V7M3_PIPE] |868| 
        BNE       ||$C$L22||            ; [DPU_V7M3_PIPE] |868| 
        ; BRANCHCC OCCURS {||$C$L22||}   ; [] |868| 
;* --------------------------------------------------------------------------*
	.dwpsn	file "../ST7735.c",line 872,column 1,is_stmt,isa 1
;* --------------------------------------------------------------------------*
||$C$L24||:    
        STR       A1, [SP, #0]          ; [DPU_V7M3_PIPE] 
$C$DW$123	.dwtag  DW_TAG_TI_branch
	.dwattr $C$DW$123, DW_AT_low_pc(0x00)
	.dwattr $C$DW$123, DW_AT_TI_return

        POP       {A1, A2, A3, A4, V1, PC} ; [DPU_V7M3_PIPE] 
	.dwcfi	cfa_offset, 0
	.dwcfi	restore_reg, 4
	.dwcfi	restore_reg, 3
	.dwcfi	restore_reg, 2
	.dwcfi	restore_reg, 1
	.dwcfi	restore_reg, 0
        ; BRANCH OCCURS                  ; [] 
	.dwattr $C$DW$109, DW_AT_TI_end_file("../ST7735.c")
	.dwattr $C$DW$109, DW_AT_TI_end_line(0x368)
	.dwattr $C$DW$109, DW_AT_TI_end_column(0x01)
	.dwendentry
	.dwendtag $C$DW$109

;******************************************************************************
;* CONSTANT TABLE                                                             *
;******************************************************************************
	.sect	".text"
	.align	4
||$C$CON4||:	.bits	ColStart,32
	.align	4
||$C$CON5||:	.bits	RowStart,32
	.align	4
||$C$CON6||:	.bits		0x400fe61c,32

	.align	4
||$C$CON7||:	.bits		0x400fe608,32

	.align	4
||$C$CON8||:	.bits		0x400fea08,32

	.align	4
||$C$CON9||:	.bits		0x40004400,32

	.align	4
||$C$CON10||:	.bits		0x40004420,32

	.align	4
||$C$CON11||:	.bits		0x4000451c,32

	.align	4
||$C$CON12||:	.bits		0x4000452c,32

	.align	4
||$C$CON13||:	.bits		0xff0fff,32

	.align	4
||$C$CON14||:	.bits		0x40004528,32

	.align	4
||$C$CON15||:	.bits		0x40004020,32

	.align	4
||$C$CON16||:	.bits		0x40004200,32

	.align	4
||$C$CON17||:	.bits		0x202200,32

	.align	4
||$C$CON18||:	.bits		0xff0f00ff,32

	.align	4
||$C$CON19||:	.bits		0x40008004,32

	.align	4
||$C$CON20||:	.bits		0x40008fc8,32

	.align	4
||$C$CON21||:	.bits		0x40008010,32

	.sect	".text"
	.clink
	.thumbfunc ST7735_DrawFastHLine
	.thumb
	.global	ST7735_DrawFastHLine

$C$DW$124	.dwtag  DW_TAG_subprogram
	.dwattr $C$DW$124, DW_AT_name("ST7735_DrawFastHLine")
	.dwattr $C$DW$124, DW_AT_low_pc(ST7735_DrawFastHLine)
	.dwattr $C$DW$124, DW_AT_high_pc(0x00)
	.dwattr $C$DW$124, DW_AT_TI_symbol_name("ST7735_DrawFastHLine")
	.dwattr $C$DW$124, DW_AT_external
	.dwattr $C$DW$124, DW_AT_TI_begin_file("../ST7735.c")
	.dwattr $C$DW$124, DW_AT_TI_begin_line(0x374)
	.dwattr $C$DW$124, DW_AT_TI_begin_column(0x06)
	.dwattr $C$DW$124, DW_AT_decl_file("../ST7735.c")
	.dwattr $C$DW$124, DW_AT_decl_line(0x374)
	.dwattr $C$DW$124, DW_AT_decl_column(0x06)
	.dwattr $C$DW$124, DW_AT_TI_max_frame_size(0x18)
	.dwpsn	file "../ST7735.c",line 884,column 76,is_stmt,address ST7735_DrawFastHLine,isa 1

	.dwfde $C$DW$CIE, ST7735_DrawFastHLine
$C$DW$125	.dwtag  DW_TAG_formal_parameter
	.dwattr $C$DW$125, DW_AT_name("x")
	.dwattr $C$DW$125, DW_AT_TI_symbol_name("x")
	.dwattr $C$DW$125, DW_AT_type(*$C$DW$T$10)
	.dwattr $C$DW$125, DW_AT_location[DW_OP_reg0]

$C$DW$126	.dwtag  DW_TAG_formal_parameter
	.dwattr $C$DW$126, DW_AT_name("y")
	.dwattr $C$DW$126, DW_AT_TI_symbol_name("y")
	.dwattr $C$DW$126, DW_AT_type(*$C$DW$T$10)
	.dwattr $C$DW$126, DW_AT_location[DW_OP_reg1]

$C$DW$127	.dwtag  DW_TAG_formal_parameter
	.dwattr $C$DW$127, DW_AT_name("w")
	.dwattr $C$DW$127, DW_AT_TI_symbol_name("w")
	.dwattr $C$DW$127, DW_AT_type(*$C$DW$T$10)
	.dwattr $C$DW$127, DW_AT_location[DW_OP_reg2]

$C$DW$128	.dwtag  DW_TAG_formal_parameter
	.dwattr $C$DW$128, DW_AT_name("color")
	.dwattr $C$DW$128, DW_AT_TI_symbol_name("color")
	.dwattr $C$DW$128, DW_AT_type(*$C$DW$T$10)
	.dwattr $C$DW$128, DW_AT_location[DW_OP_reg3]


;*****************************************************************************
;* FUNCTION NAME: ST7735_DrawFastHLine                                       *
;*                                                                           *
;*   Regs Modified     : A1,A2,A3,A4,V1,SP,LR,SR,FPEXC,FPSCR                 *
;*   Regs Used         : A1,A2,A3,A4,V1,SP,LR,SR,FPEXC,FPSCR                 *
;*   Local Frame Size  : 0 Args + 12 Auto + 8 Save = 20 byte                 *
;*****************************************************************************
ST7735_DrawFastHLine:
;* --------------------------------------------------------------------------*
	.dwcfi	cfa_offset, 0
        PUSH      {A1, A2, A3, A4, V1, LR} ; [DPU_V7M3_PIPE] 
	.dwcfi	cfa_offset, 24
	.dwcfi	save_reg_to_mem, 14, -4
	.dwcfi	save_reg_to_mem, 4, -8
	.dwcfi	save_reg_to_mem, 3, -12
	.dwcfi	save_reg_to_mem, 2, -16
	.dwcfi	save_reg_to_mem, 1, -20
	.dwcfi	save_reg_to_mem, 0, -24
$C$DW$129	.dwtag  DW_TAG_variable
	.dwattr $C$DW$129, DW_AT_name("x")
	.dwattr $C$DW$129, DW_AT_TI_symbol_name("x")
	.dwattr $C$DW$129, DW_AT_type(*$C$DW$T$50)
	.dwattr $C$DW$129, DW_AT_location[DW_OP_breg13 0]

$C$DW$130	.dwtag  DW_TAG_variable
	.dwattr $C$DW$130, DW_AT_name("y")
	.dwattr $C$DW$130, DW_AT_TI_symbol_name("y")
	.dwattr $C$DW$130, DW_AT_type(*$C$DW$T$50)
	.dwattr $C$DW$130, DW_AT_location[DW_OP_breg13 2]

$C$DW$131	.dwtag  DW_TAG_variable
	.dwattr $C$DW$131, DW_AT_name("w")
	.dwattr $C$DW$131, DW_AT_TI_symbol_name("w")
	.dwattr $C$DW$131, DW_AT_type(*$C$DW$T$50)
	.dwattr $C$DW$131, DW_AT_location[DW_OP_breg13 4]

$C$DW$132	.dwtag  DW_TAG_variable
	.dwattr $C$DW$132, DW_AT_name("color")
	.dwattr $C$DW$132, DW_AT_TI_symbol_name("color")
	.dwattr $C$DW$132, DW_AT_type(*$C$DW$T$46)
	.dwattr $C$DW$132, DW_AT_location[DW_OP_breg13 6]

$C$DW$133	.dwtag  DW_TAG_variable
	.dwattr $C$DW$133, DW_AT_name("hi")
	.dwattr $C$DW$133, DW_AT_TI_symbol_name("hi")
	.dwattr $C$DW$133, DW_AT_type(*$C$DW$T$27)
	.dwattr $C$DW$133, DW_AT_location[DW_OP_breg13 8]

$C$DW$134	.dwtag  DW_TAG_variable
	.dwattr $C$DW$134, DW_AT_name("lo")
	.dwattr $C$DW$134, DW_AT_TI_symbol_name("lo")
	.dwattr $C$DW$134, DW_AT_type(*$C$DW$T$27)
	.dwattr $C$DW$134, DW_AT_location[DW_OP_breg13 9]

;----------------------------------------------------------------------
; 884 | void ST7735_DrawFastHLine(int16_t x, int16_t y, int16_t w, uint16_t col
;     | or) {                                                                  
;----------------------------------------------------------------------
        STRH      A4, [SP, #6]          ; [DPU_V7M3_PIPE] |884| 
        STRH      A3, [SP, #4]          ; [DPU_V7M3_PIPE] |884| 
        STRH      A2, [SP, #2]          ; [DPU_V7M3_PIPE] |884| 
        STRH      A1, [SP, #0]          ; [DPU_V7M3_PIPE] |884| 
	.dwpsn	file "../ST7735.c",line 885,column 14,is_stmt,isa 1
;----------------------------------------------------------------------
; 885 | uint8_t hi = color >> 8, lo = color;                                   
;----------------------------------------------------------------------
        LDRH      A1, [SP, #6]          ; [DPU_V7M3_PIPE] |885| 
        ASRS      A1, A1, #8            ; [DPU_V7M3_PIPE] |885| 
        STRB      A1, [SP, #8]          ; [DPU_V7M3_PIPE] |885| 
	.dwpsn	file "../ST7735.c",line 885,column 31,is_stmt,isa 1
;----------------------------------------------------------------------
; 887 | // Rudimentary clipping                                                
;----------------------------------------------------------------------
        LDRB      A1, [SP, #6]          ; [DPU_V7M3_PIPE] |885| 
        STRB      A1, [SP, #9]          ; [DPU_V7M3_PIPE] |885| 
	.dwpsn	file "../ST7735.c",line 888,column 3,is_stmt,isa 1
;----------------------------------------------------------------------
; 888 | if((x >= _width) || (y >= _height)) return;                            
;----------------------------------------------------------------------
        LDR       A1, $C$CON30          ; [DPU_V7M3_PIPE] |888| 
        LDRSH     A2, [SP, #0]          ; [DPU_V7M3_PIPE] |888| 
        LDRSH     A1, [A1, #0]          ; [DPU_V7M3_PIPE] |888| 
        CMP       A1, A2                ; [DPU_V7M3_PIPE] |888| 
        BLE       ||$C$L29||            ; [DPU_V7M3_PIPE] |888| 
        ; BRANCHCC OCCURS {||$C$L29||}   ; [] |888| 
;* --------------------------------------------------------------------------*
        LDR       A1, $C$CON31          ; [DPU_V7M3_PIPE] |888| 
        LDRSH     A2, [SP, #2]          ; [DPU_V7M3_PIPE] |888| 
        LDRSH     A1, [A1, #0]          ; [DPU_V7M3_PIPE] |888| 
        CMP       A1, A2                ; [DPU_V7M3_PIPE] |888| 
        BGT       ||$C$L25||            ; [DPU_V7M3_PIPE] |888| 
        ; BRANCHCC OCCURS {||$C$L25||}   ; [] |888| 
;* --------------------------------------------------------------------------*
        B         ||$C$L29||            ; [DPU_V7M3_PIPE] |888| 
        ; BRANCH OCCURS {||$C$L29||}     ; [] |888| 
;* --------------------------------------------------------------------------*
;* --------------------------------------------------------------------------*
||$C$L25||:    
	.dwpsn	file "../ST7735.c",line 889,column 3,is_stmt,isa 1
;----------------------------------------------------------------------
; 889 | if((x+w-1) >= _width)  w = _width-x;                                   
;----------------------------------------------------------------------
        LDR       A2, $C$CON30          ; [DPU_V7M3_PIPE] |889| 
        LDRSH     A3, [SP, #4]          ; [DPU_V7M3_PIPE] |889| 
        LDRSH     A1, [SP, #0]          ; [DPU_V7M3_PIPE] |889| 
        LDRSH     A2, [A2, #0]          ; [DPU_V7M3_PIPE] |889| 
        ADDS      A1, A1, A3            ; [DPU_V7M3_PIPE] |889| 
        SUBS      A1, A1, #1            ; [DPU_V7M3_PIPE] |889| 
        CMP       A2, A1                ; [DPU_V7M3_PIPE] |889| 
        BGT       ||$C$L26||            ; [DPU_V7M3_PIPE] |889| 
        ; BRANCHCC OCCURS {||$C$L26||}   ; [] |889| 
;* --------------------------------------------------------------------------*
	.dwpsn	file "../ST7735.c",line 889,column 26,is_stmt,isa 1
        LDR       A1, $C$CON30          ; [DPU_V7M3_PIPE] |889| 
        LDRSH     A2, [SP, #0]          ; [DPU_V7M3_PIPE] |889| 
        LDRSH     A1, [A1, #0]          ; [DPU_V7M3_PIPE] |889| 
        SUBS      A1, A1, A2            ; [DPU_V7M3_PIPE] |889| 
        STRH      A1, [SP, #4]          ; [DPU_V7M3_PIPE] |889| 
;* --------------------------------------------------------------------------*
||$C$L26||:    
	.dwpsn	file "../ST7735.c",line 890,column 3,is_stmt,isa 1
;----------------------------------------------------------------------
; 890 | setAddrWindow(x, y, x+w-1, y);                                         
;----------------------------------------------------------------------
        LDRSH     V1, [SP, #4]          ; [DPU_V7M3_PIPE] |890| 
        LDRSH     A3, [SP, #0]          ; [DPU_V7M3_PIPE] |890| 
        LDRB      A1, [SP, #0]          ; [DPU_V7M3_PIPE] |890| 
        LDRB      A2, [SP, #2]          ; [DPU_V7M3_PIPE] |890| 
        LDRB      A4, [SP, #2]          ; [DPU_V7M3_PIPE] |890| 
        ADDS      A3, A3, V1            ; [DPU_V7M3_PIPE] |890| 
        SUBS      A3, A3, #1            ; [DPU_V7M3_PIPE] |890| 
        UXTB      A3, A3                ; [DPU_V7M3_PIPE] |890| 
$C$DW$135	.dwtag  DW_TAG_TI_branch
	.dwattr $C$DW$135, DW_AT_low_pc(0x00)
	.dwattr $C$DW$135, DW_AT_name("setAddrWindow")
	.dwattr $C$DW$135, DW_AT_TI_call

        BL        setAddrWindow         ; [DPU_V7M3_PIPE] |890| 
        ; CALL OCCURS {setAddrWindow }   ; [] |890| 
	.dwpsn	file "../ST7735.c",line 892,column 3,is_stmt,isa 1
;----------------------------------------------------------------------
; 892 | while (w--) {                                                          
;----------------------------------------------------------------------
        B         ||$C$L28||            ; [DPU_V7M3_PIPE] |892| 
        ; BRANCH OCCURS {||$C$L28||}     ; [] |892| 
;* --------------------------------------------------------------------------*
||$C$L27||:    
	.dwpsn	file "../ST7735.c",line 893,column 5,is_stmt,isa 1
;----------------------------------------------------------------------
; 893 | writedata(hi);                                                         
;----------------------------------------------------------------------
        LDRB      A1, [SP, #8]          ; [DPU_V7M3_PIPE] |893| 
$C$DW$136	.dwtag  DW_TAG_TI_branch
	.dwattr $C$DW$136, DW_AT_low_pc(0x00)
	.dwattr $C$DW$136, DW_AT_name("writedata")
	.dwattr $C$DW$136, DW_AT_TI_call

        BL        writedata             ; [DPU_V7M3_PIPE] |893| 
        ; CALL OCCURS {writedata }       ; [] |893| 
	.dwpsn	file "../ST7735.c",line 894,column 5,is_stmt,isa 1
;----------------------------------------------------------------------
; 894 | writedata(lo);                                                         
;----------------------------------------------------------------------
        LDRB      A1, [SP, #9]          ; [DPU_V7M3_PIPE] |894| 
$C$DW$137	.dwtag  DW_TAG_TI_branch
	.dwattr $C$DW$137, DW_AT_low_pc(0x00)
	.dwattr $C$DW$137, DW_AT_name("writedata")
	.dwattr $C$DW$137, DW_AT_TI_call

        BL        writedata             ; [DPU_V7M3_PIPE] |894| 
        ; CALL OCCURS {writedata }       ; [] |894| 
;* --------------------------------------------------------------------------*
;*   BEGIN LOOP ||$C$L28||
;* --------------------------------------------------------------------------*
||$C$L28||:    
	.dwpsn	file "../ST7735.c",line 892,column 3,is_stmt,isa 1
        LDRSH     A1, [SP, #4]          ; [DPU_V7M3_PIPE] |892| 
        SUBS      A2, A1, #1            ; [DPU_V7M3_PIPE] |892| 
        CMP       A1, #0                ; [DPU_V7M3_PIPE] |892| 
        STRH      A2, [SP, #4]          ; [DPU_V7M3_PIPE] |892| 
        BNE       ||$C$L27||            ; [DPU_V7M3_PIPE] |892| 
        ; BRANCHCC OCCURS {||$C$L27||}   ; [] |892| 
;* --------------------------------------------------------------------------*
	.dwpsn	file "../ST7735.c",line 896,column 1,is_stmt,isa 1
;* --------------------------------------------------------------------------*
||$C$L29||:    
        STR       A1, [SP, #0]          ; [DPU_V7M3_PIPE] 
$C$DW$138	.dwtag  DW_TAG_TI_branch
	.dwattr $C$DW$138, DW_AT_low_pc(0x00)
	.dwattr $C$DW$138, DW_AT_TI_return

        POP       {A1, A2, A3, A4, V1, PC} ; [DPU_V7M3_PIPE] 
	.dwcfi	cfa_offset, 0
	.dwcfi	restore_reg, 4
	.dwcfi	restore_reg, 3
	.dwcfi	restore_reg, 2
	.dwcfi	restore_reg, 1
	.dwcfi	restore_reg, 0
        ; BRANCH OCCURS                  ; [] 
	.dwattr $C$DW$124, DW_AT_TI_end_file("../ST7735.c")
	.dwattr $C$DW$124, DW_AT_TI_end_line(0x380)
	.dwattr $C$DW$124, DW_AT_TI_end_column(0x01)
	.dwendentry
	.dwendtag $C$DW$124

;******************************************************************************
;* CONSTANT TABLE                                                             *
;******************************************************************************
	.sect	".text"
	.align	4
||$C$CON22||:	.bits		0x40008000,32

	.sect	".text"
	.clink
	.thumbfunc ST7735_FillScreen
	.thumb
	.global	ST7735_FillScreen

$C$DW$139	.dwtag  DW_TAG_subprogram
	.dwattr $C$DW$139, DW_AT_name("ST7735_FillScreen")
	.dwattr $C$DW$139, DW_AT_low_pc(ST7735_FillScreen)
	.dwattr $C$DW$139, DW_AT_high_pc(0x00)
	.dwattr $C$DW$139, DW_AT_TI_symbol_name("ST7735_FillScreen")
	.dwattr $C$DW$139, DW_AT_external
	.dwattr $C$DW$139, DW_AT_TI_begin_file("../ST7735.c")
	.dwattr $C$DW$139, DW_AT_TI_begin_line(0x388)
	.dwattr $C$DW$139, DW_AT_TI_begin_column(0x06)
	.dwattr $C$DW$139, DW_AT_decl_file("../ST7735.c")
	.dwattr $C$DW$139, DW_AT_decl_line(0x388)
	.dwattr $C$DW$139, DW_AT_decl_column(0x06)
	.dwattr $C$DW$139, DW_AT_TI_max_frame_size(0x10)
	.dwpsn	file "../ST7735.c",line 904,column 40,is_stmt,address ST7735_FillScreen,isa 1

	.dwfde $C$DW$CIE, ST7735_FillScreen
$C$DW$140	.dwtag  DW_TAG_formal_parameter
	.dwattr $C$DW$140, DW_AT_name("color")
	.dwattr $C$DW$140, DW_AT_TI_symbol_name("color")
	.dwattr $C$DW$140, DW_AT_type(*$C$DW$T$10)
	.dwattr $C$DW$140, DW_AT_location[DW_OP_reg0]


;*****************************************************************************
;* FUNCTION NAME: ST7735_FillScreen                                          *
;*                                                                           *
;*   Regs Modified     : A1,A2,A3,A4,V9,SP,LR,SR,D0,D0_hi,D1,D1_hi,D2,D2_hi, *
;*                           D3,D3_hi,D4,D4_hi,D5,D5_hi,D6,D6_hi,D7,D7_hi,   *
;*                           FPEXC,FPSCR                                     *
;*   Regs Used         : A1,A2,A3,A4,V9,SP,LR,SR,D0,D0_hi,D1,D1_hi,D2,D2_hi, *
;*                           D3,D3_hi,D4,D4_hi,D5,D5_hi,D6,D6_hi,D7,D7_hi,   *
;*                           FPEXC,FPSCR                                     *
;*   Local Frame Size  : 4 Args + 4 Auto + 4 Save = 12 byte                  *
;*****************************************************************************
ST7735_FillScreen:
;* --------------------------------------------------------------------------*
	.dwcfi	cfa_offset, 0
        PUSH      {A2, A3, A4, LR}      ; [DPU_V7M3_PIPE] 
	.dwcfi	cfa_offset, 16
	.dwcfi	save_reg_to_mem, 14, -4
	.dwcfi	save_reg_to_mem, 3, -8
	.dwcfi	save_reg_to_mem, 2, -12
	.dwcfi	save_reg_to_mem, 1, -16
$C$DW$141	.dwtag  DW_TAG_variable
	.dwattr $C$DW$141, DW_AT_name("color")
	.dwattr $C$DW$141, DW_AT_TI_symbol_name("color")
	.dwattr $C$DW$141, DW_AT_type(*$C$DW$T$46)
	.dwattr $C$DW$141, DW_AT_location[DW_OP_breg13 4]

;----------------------------------------------------------------------
; 904 | void ST7735_FillScreen(uint16_t color) {                               
;----------------------------------------------------------------------
        STRH      A1, [SP, #4]          ; [DPU_V7M3_PIPE] |904| 
	.dwpsn	file "../ST7735.c",line 905,column 3,is_stmt,isa 1
;----------------------------------------------------------------------
; 905 | ST7735_FillRect(0, 0, _width, _height, color);  // original            
; 906 | //  screen is actually 129 by 161 pixels, x 0 to 128, y goes from 0 to
;     | 160                                                                    
;----------------------------------------------------------------------
        LDR       A2, $C$CON31          ; [DPU_V7M3_PIPE] |905| 
        LDRH      A1, [SP, #4]          ; [DPU_V7M3_PIPE] |905| 
        LDR       A3, $C$CON30          ; [DPU_V7M3_PIPE] |905| 
        STR       A1, [SP, #0]          ; [DPU_V7M3_PIPE] |905| 
        LDRSH     A4, [A2, #0]          ; [DPU_V7M3_PIPE] |905| 
        LDRSH     A3, [A3, #0]          ; [DPU_V7M3_PIPE] |905| 
        MOVS      A1, #0                ; [DPU_V7M3_PIPE] |905| 
        MOVS      A2, #0                ; [DPU_V7M3_PIPE] |905| 
$C$DW$142	.dwtag  DW_TAG_TI_branch
	.dwattr $C$DW$142, DW_AT_low_pc(0x00)
	.dwattr $C$DW$142, DW_AT_name("ST7735_FillRect")
	.dwattr $C$DW$142, DW_AT_TI_call

        BL        ST7735_FillRect       ; [DPU_V7M3_PIPE] |905| 
        ; CALL OCCURS {ST7735_FillRect }  ; [] |905| 
	.dwpsn	file "../ST7735.c",line 907,column 1,is_stmt,isa 1
$C$DW$143	.dwtag  DW_TAG_TI_branch
	.dwattr $C$DW$143, DW_AT_low_pc(0x00)
	.dwattr $C$DW$143, DW_AT_TI_return

        POP       {A2, A3, A4, PC}      ; [DPU_V7M3_PIPE] 
	.dwcfi	cfa_offset, 0
	.dwcfi	restore_reg, 3
	.dwcfi	restore_reg, 2
	.dwcfi	restore_reg, 1
        ; BRANCH OCCURS                  ; [] 
	.dwattr $C$DW$139, DW_AT_TI_end_file("../ST7735.c")
	.dwattr $C$DW$139, DW_AT_TI_end_line(0x38b)
	.dwattr $C$DW$139, DW_AT_TI_end_column(0x01)
	.dwendentry
	.dwendtag $C$DW$139

;******************************************************************************
;* CONSTANT TABLE                                                             *
;******************************************************************************
	.sect	".text"
	.align	4
||$C$CON23||:	.bits	Bcmd,32
	.align	4
||$C$CON24||:	.bits	StTextColor,32
	.align	4
||$C$CON25||:	.bits	Rcmd1,32
	.align	4
||$C$CON26||:	.bits	Rcmd2green,32
	.align	4
||$C$CON27||:	.bits	Rcmd2red,32
	.align	4
||$C$CON28||:	.bits	Rcmd3,32
	.align	4
||$C$CON29||:	.bits	TabColor,32
	.sect	".text"
	.clink
	.thumbfunc ST7735_FillRect
	.thumb
	.global	ST7735_FillRect

$C$DW$144	.dwtag  DW_TAG_subprogram
	.dwattr $C$DW$144, DW_AT_name("ST7735_FillRect")
	.dwattr $C$DW$144, DW_AT_low_pc(ST7735_FillRect)
	.dwattr $C$DW$144, DW_AT_high_pc(0x00)
	.dwattr $C$DW$144, DW_AT_TI_symbol_name("ST7735_FillRect")
	.dwattr $C$DW$144, DW_AT_external
	.dwattr $C$DW$144, DW_AT_TI_begin_file("../ST7735.c")
	.dwattr $C$DW$144, DW_AT_TI_begin_line(0x397)
	.dwattr $C$DW$144, DW_AT_TI_begin_column(0x06)
	.dwattr $C$DW$144, DW_AT_decl_file("../ST7735.c")
	.dwattr $C$DW$144, DW_AT_decl_line(0x397)
	.dwattr $C$DW$144, DW_AT_decl_column(0x06)
	.dwattr $C$DW$144, DW_AT_TI_max_frame_size(0x20)
	.dwpsn	file "../ST7735.c",line 919,column 82,is_stmt,address ST7735_FillRect,isa 1

	.dwfde $C$DW$CIE, ST7735_FillRect
$C$DW$145	.dwtag  DW_TAG_formal_parameter
	.dwattr $C$DW$145, DW_AT_name("x")
	.dwattr $C$DW$145, DW_AT_TI_symbol_name("x")
	.dwattr $C$DW$145, DW_AT_type(*$C$DW$T$10)
	.dwattr $C$DW$145, DW_AT_location[DW_OP_reg0]

$C$DW$146	.dwtag  DW_TAG_formal_parameter
	.dwattr $C$DW$146, DW_AT_name("y")
	.dwattr $C$DW$146, DW_AT_TI_symbol_name("y")
	.dwattr $C$DW$146, DW_AT_type(*$C$DW$T$10)
	.dwattr $C$DW$146, DW_AT_location[DW_OP_reg1]

$C$DW$147	.dwtag  DW_TAG_formal_parameter
	.dwattr $C$DW$147, DW_AT_name("w")
	.dwattr $C$DW$147, DW_AT_TI_symbol_name("w")
	.dwattr $C$DW$147, DW_AT_type(*$C$DW$T$10)
	.dwattr $C$DW$147, DW_AT_location[DW_OP_reg2]

$C$DW$148	.dwtag  DW_TAG_formal_parameter
	.dwattr $C$DW$148, DW_AT_name("h")
	.dwattr $C$DW$148, DW_AT_TI_symbol_name("h")
	.dwattr $C$DW$148, DW_AT_type(*$C$DW$T$10)
	.dwattr $C$DW$148, DW_AT_location[DW_OP_reg3]

$C$DW$149	.dwtag  DW_TAG_formal_parameter
	.dwattr $C$DW$149, DW_AT_name("color")
	.dwattr $C$DW$149, DW_AT_TI_symbol_name("color")
	.dwattr $C$DW$149, DW_AT_type(*$C$DW$T$10)
	.dwattr $C$DW$149, DW_AT_location[DW_OP_breg13 32]


;*****************************************************************************
;* FUNCTION NAME: ST7735_FillRect                                            *
;*                                                                           *
;*   Regs Modified     : A1,A2,A3,A4,V1,V2,V4,SP,LR,SR,FPEXC,FPSCR           *
;*   Regs Used         : A1,A2,A3,A4,V1,V2,V4,SP,LR,SR,FPEXC,FPSCR           *
;*   Local Frame Size  : 0 Args + 12 Auto + 16 Save = 28 byte                *
;*****************************************************************************
ST7735_FillRect:
;* --------------------------------------------------------------------------*
	.dwcfi	cfa_offset, 0
        PUSH      {A1, A2, A3, A4, V1, V2, V4, LR} ; [DPU_V7M3_PIPE] 
	.dwcfi	cfa_offset, 32
	.dwcfi	save_reg_to_mem, 14, -4
	.dwcfi	save_reg_to_mem, 7, -8
	.dwcfi	save_reg_to_mem, 5, -12
	.dwcfi	save_reg_to_mem, 4, -16
	.dwcfi	save_reg_to_mem, 3, -20
	.dwcfi	save_reg_to_mem, 2, -24
	.dwcfi	save_reg_to_mem, 1, -28
	.dwcfi	save_reg_to_mem, 0, -32
        ADD       V4, SP, #32           ; [DPU_V7M3_PIPE] 
$C$DW$150	.dwtag  DW_TAG_variable
	.dwattr $C$DW$150, DW_AT_name("x")
	.dwattr $C$DW$150, DW_AT_TI_symbol_name("x")
	.dwattr $C$DW$150, DW_AT_type(*$C$DW$T$50)
	.dwattr $C$DW$150, DW_AT_location[DW_OP_breg13 0]

$C$DW$151	.dwtag  DW_TAG_variable
	.dwattr $C$DW$151, DW_AT_name("y")
	.dwattr $C$DW$151, DW_AT_TI_symbol_name("y")
	.dwattr $C$DW$151, DW_AT_type(*$C$DW$T$50)
	.dwattr $C$DW$151, DW_AT_location[DW_OP_breg13 2]

$C$DW$152	.dwtag  DW_TAG_variable
	.dwattr $C$DW$152, DW_AT_name("w")
	.dwattr $C$DW$152, DW_AT_TI_symbol_name("w")
	.dwattr $C$DW$152, DW_AT_type(*$C$DW$T$50)
	.dwattr $C$DW$152, DW_AT_location[DW_OP_breg13 4]

$C$DW$153	.dwtag  DW_TAG_variable
	.dwattr $C$DW$153, DW_AT_name("h")
	.dwattr $C$DW$153, DW_AT_TI_symbol_name("h")
	.dwattr $C$DW$153, DW_AT_type(*$C$DW$T$50)
	.dwattr $C$DW$153, DW_AT_location[DW_OP_breg13 6]

$C$DW$154	.dwtag  DW_TAG_variable
	.dwattr $C$DW$154, DW_AT_name("hi")
	.dwattr $C$DW$154, DW_AT_TI_symbol_name("hi")
	.dwattr $C$DW$154, DW_AT_type(*$C$DW$T$27)
	.dwattr $C$DW$154, DW_AT_location[DW_OP_breg13 8]

$C$DW$155	.dwtag  DW_TAG_variable
	.dwattr $C$DW$155, DW_AT_name("lo")
	.dwattr $C$DW$155, DW_AT_TI_symbol_name("lo")
	.dwattr $C$DW$155, DW_AT_type(*$C$DW$T$27)
	.dwattr $C$DW$155, DW_AT_location[DW_OP_breg13 9]

;----------------------------------------------------------------------
; 919 | void ST7735_FillRect(int16_t x, int16_t y, int16_t w, int16_t h, uint16
;     | _t color) {                                                            
;----------------------------------------------------------------------
        STRH      A4, [SP, #6]          ; [DPU_V7M3_PIPE] |919| 
        STRH      A3, [SP, #4]          ; [DPU_V7M3_PIPE] |919| 
        STRH      A2, [SP, #2]          ; [DPU_V7M3_PIPE] |919| 
        STRH      A1, [SP, #0]          ; [DPU_V7M3_PIPE] |919| 
	.dwpsn	file "../ST7735.c",line 920,column 14,is_stmt,isa 1
;----------------------------------------------------------------------
; 920 | uint8_t hi = color >> 8, lo = color;                                   
;----------------------------------------------------------------------
        LDRH      A1, [V4, #0]          ; [DPU_V7M3_PIPE] |920| 
        ASRS      A1, A1, #8            ; [DPU_V7M3_PIPE] |920| 
        STRB      A1, [SP, #8]          ; [DPU_V7M3_PIPE] |920| 
	.dwpsn	file "../ST7735.c",line 920,column 31,is_stmt,isa 1
;----------------------------------------------------------------------
; 922 | // rudimentary clipping (drawChar w/big text requires this)            
;----------------------------------------------------------------------
        LDRB      A1, [V4, #0]          ; [DPU_V7M3_PIPE] |920| 
        STRB      A1, [SP, #9]          ; [DPU_V7M3_PIPE] |920| 
	.dwpsn	file "../ST7735.c",line 923,column 3,is_stmt,isa 1
;----------------------------------------------------------------------
; 923 | if((x >= _width) || (y >= _height)) return;                            
;----------------------------------------------------------------------
        LDR       A1, $C$CON30          ; [DPU_V7M3_PIPE] |923| 
        LDRSH     A2, [SP, #0]          ; [DPU_V7M3_PIPE] |923| 
        LDRSH     A1, [A1, #0]          ; [DPU_V7M3_PIPE] |923| 
        CMP       A1, A2                ; [DPU_V7M3_PIPE] |923| 
        BLE       ||$C$L36||            ; [DPU_V7M3_PIPE] |923| 
        ; BRANCHCC OCCURS {||$C$L36||}   ; [] |923| 
;* --------------------------------------------------------------------------*
        LDR       A1, $C$CON31          ; [DPU_V7M3_PIPE] |923| 
        LDRSH     A2, [SP, #2]          ; [DPU_V7M3_PIPE] |923| 
        LDRSH     A1, [A1, #0]          ; [DPU_V7M3_PIPE] |923| 
        CMP       A1, A2                ; [DPU_V7M3_PIPE] |923| 
        BGT       ||$C$L30||            ; [DPU_V7M3_PIPE] |923| 
        ; BRANCHCC OCCURS {||$C$L30||}   ; [] |923| 
;* --------------------------------------------------------------------------*
        B         ||$C$L36||            ; [DPU_V7M3_PIPE] |923| 
        ; BRANCH OCCURS {||$C$L36||}     ; [] |923| 
;* --------------------------------------------------------------------------*
;* --------------------------------------------------------------------------*
||$C$L30||:    
	.dwpsn	file "../ST7735.c",line 924,column 3,is_stmt,isa 1
;----------------------------------------------------------------------
; 924 | if((x + w - 1) >= _width)  w = _width  - x;                            
;----------------------------------------------------------------------
        LDR       A2, $C$CON30          ; [DPU_V7M3_PIPE] |924| 
        LDRSH     A3, [SP, #4]          ; [DPU_V7M3_PIPE] |924| 
        LDRSH     A1, [SP, #0]          ; [DPU_V7M3_PIPE] |924| 
        LDRSH     A2, [A2, #0]          ; [DPU_V7M3_PIPE] |924| 
        ADDS      A1, A1, A3            ; [DPU_V7M3_PIPE] |924| 
        SUBS      A1, A1, #1            ; [DPU_V7M3_PIPE] |924| 
        CMP       A2, A1                ; [DPU_V7M3_PIPE] |924| 
        BGT       ||$C$L31||            ; [DPU_V7M3_PIPE] |924| 
        ; BRANCHCC OCCURS {||$C$L31||}   ; [] |924| 
;* --------------------------------------------------------------------------*
	.dwpsn	file "../ST7735.c",line 924,column 30,is_stmt,isa 1
        LDR       A1, $C$CON30          ; [DPU_V7M3_PIPE] |924| 
        LDRSH     A2, [SP, #0]          ; [DPU_V7M3_PIPE] |924| 
        LDRSH     A1, [A1, #0]          ; [DPU_V7M3_PIPE] |924| 
        SUBS      A1, A1, A2            ; [DPU_V7M3_PIPE] |924| 
        STRH      A1, [SP, #4]          ; [DPU_V7M3_PIPE] |924| 
;* --------------------------------------------------------------------------*
||$C$L31||:    
	.dwpsn	file "../ST7735.c",line 925,column 3,is_stmt,isa 1
;----------------------------------------------------------------------
; 925 | if((y + h - 1) >= _height) h = _height - y;                            
;----------------------------------------------------------------------
        LDR       A2, $C$CON31          ; [DPU_V7M3_PIPE] |925| 
        LDRSH     A3, [SP, #6]          ; [DPU_V7M3_PIPE] |925| 
        LDRSH     A1, [SP, #2]          ; [DPU_V7M3_PIPE] |925| 
        LDRSH     A2, [A2, #0]          ; [DPU_V7M3_PIPE] |925| 
        ADDS      A1, A1, A3            ; [DPU_V7M3_PIPE] |925| 
        SUBS      A1, A1, #1            ; [DPU_V7M3_PIPE] |925| 
        CMP       A2, A1                ; [DPU_V7M3_PIPE] |925| 
        BGT       ||$C$L32||            ; [DPU_V7M3_PIPE] |925| 
        ; BRANCHCC OCCURS {||$C$L32||}   ; [] |925| 
;* --------------------------------------------------------------------------*
	.dwpsn	file "../ST7735.c",line 925,column 30,is_stmt,isa 1
        LDR       A1, $C$CON31          ; [DPU_V7M3_PIPE] |925| 
        LDRSH     A2, [SP, #2]          ; [DPU_V7M3_PIPE] |925| 
        LDRSH     A1, [A1, #0]          ; [DPU_V7M3_PIPE] |925| 
        SUBS      A1, A1, A2            ; [DPU_V7M3_PIPE] |925| 
        STRH      A1, [SP, #6]          ; [DPU_V7M3_PIPE] |925| 
;* --------------------------------------------------------------------------*
||$C$L32||:    
	.dwpsn	file "../ST7735.c",line 927,column 3,is_stmt,isa 1
;----------------------------------------------------------------------
; 927 | setAddrWindow(x, y, x+w-1, y+h-1);                                     
;----------------------------------------------------------------------
        LDRSH     V2, [SP, #4]          ; [DPU_V7M3_PIPE] |927| 
        LDRSH     A3, [SP, #0]          ; [DPU_V7M3_PIPE] |927| 
        LDRSH     V1, [SP, #6]          ; [DPU_V7M3_PIPE] |927| 
        LDRSH     A4, [SP, #2]          ; [DPU_V7M3_PIPE] |927| 
        LDRB      A1, [SP, #0]          ; [DPU_V7M3_PIPE] |927| 
        LDRB      A2, [SP, #2]          ; [DPU_V7M3_PIPE] |927| 
        ADDS      A3, A3, V2            ; [DPU_V7M3_PIPE] |927| 
        ADDS      A4, A4, V1            ; [DPU_V7M3_PIPE] |927| 
        SUBS      A3, A3, #1            ; [DPU_V7M3_PIPE] |927| 
        SUBS      A4, A4, #1            ; [DPU_V7M3_PIPE] |927| 
        UXTB      A3, A3                ; [DPU_V7M3_PIPE] |927| 
        UXTB      A4, A4                ; [DPU_V7M3_PIPE] |927| 
$C$DW$156	.dwtag  DW_TAG_TI_branch
	.dwattr $C$DW$156, DW_AT_low_pc(0x00)
	.dwattr $C$DW$156, DW_AT_name("setAddrWindow")
	.dwattr $C$DW$156, DW_AT_TI_call

        BL        setAddrWindow         ; [DPU_V7M3_PIPE] |927| 
        ; CALL OCCURS {setAddrWindow }   ; [] |927| 
	.dwpsn	file "../ST7735.c",line 929,column 7,is_stmt,isa 1
;----------------------------------------------------------------------
; 929 | for(y=h; y>0; y--) {                                                   
;----------------------------------------------------------------------
        LDRH      A1, [SP, #6]          ; [DPU_V7M3_PIPE] |929| 
        STRH      A1, [SP, #2]          ; [DPU_V7M3_PIPE] |929| 
	.dwpsn	file "../ST7735.c",line 929,column 12,is_stmt,isa 1
        LDRSH     A1, [SP, #2]          ; [DPU_V7M3_PIPE] |929| 
        CMP       A1, #0                ; [DPU_V7M3_PIPE] |929| 
        BLE       ||$C$L36||            ; [DPU_V7M3_PIPE] |929| 
        ; BRANCHCC OCCURS {||$C$L36||}   ; [] |929| 
;* --------------------------------------------------------------------------*
;*   BEGIN LOOP ||$C$L33||
;*
;*   Loop source line                : 929
;*   Loop closing brace source line  : 934
;*   Known Minimum Trip Count        : 1
;*   Known Maximum Trip Count        : 4294967295
;*   Known Max Trip Count Factor     : 1
;* --------------------------------------------------------------------------*
||$C$L33||:    
	.dwpsn	file "../ST7735.c",line 930,column 9,is_stmt,isa 1
;----------------------------------------------------------------------
; 930 | for(x=w; x>0; x--) {                                                   
;----------------------------------------------------------------------
        LDRH      A1, [SP, #4]          ; [DPU_V7M3_PIPE] |930| 
        STRH      A1, [SP, #0]          ; [DPU_V7M3_PIPE] |930| 
	.dwpsn	file "../ST7735.c",line 930,column 14,is_stmt,isa 1
        LDRSH     A1, [SP, #0]          ; [DPU_V7M3_PIPE] |930| 
        CMP       A1, #0                ; [DPU_V7M3_PIPE] |930| 
        BLE       ||$C$L35||            ; [DPU_V7M3_PIPE] |930| 
        ; BRANCHCC OCCURS {||$C$L35||}   ; [] |930| 
;* --------------------------------------------------------------------------*
;*   BEGIN LOOP ||$C$L34||
;*
;*   Loop source line                : 930
;*   Loop closing brace source line  : 933
;*   Known Minimum Trip Count        : 1
;*   Known Maximum Trip Count        : 4294967295
;*   Known Max Trip Count Factor     : 1
;* --------------------------------------------------------------------------*
||$C$L34||:    
	.dwpsn	file "../ST7735.c",line 931,column 7,is_stmt,isa 1
;----------------------------------------------------------------------
; 931 | writedata(hi);                                                         
;----------------------------------------------------------------------
        LDRB      A1, [SP, #8]          ; [DPU_V7M3_PIPE] |931| 
$C$DW$157	.dwtag  DW_TAG_TI_branch
	.dwattr $C$DW$157, DW_AT_low_pc(0x00)
	.dwattr $C$DW$157, DW_AT_name("writedata")
	.dwattr $C$DW$157, DW_AT_TI_call

        BL        writedata             ; [DPU_V7M3_PIPE] |931| 
        ; CALL OCCURS {writedata }       ; [] |931| 
	.dwpsn	file "../ST7735.c",line 932,column 7,is_stmt,isa 1
;----------------------------------------------------------------------
; 932 | writedata(lo);                                                         
;----------------------------------------------------------------------
        LDRB      A1, [SP, #9]          ; [DPU_V7M3_PIPE] |932| 
$C$DW$158	.dwtag  DW_TAG_TI_branch
	.dwattr $C$DW$158, DW_AT_low_pc(0x00)
	.dwattr $C$DW$158, DW_AT_name("writedata")
	.dwattr $C$DW$158, DW_AT_TI_call

        BL        writedata             ; [DPU_V7M3_PIPE] |932| 
        ; CALL OCCURS {writedata }       ; [] |932| 
	.dwpsn	file "../ST7735.c",line 930,column 19,is_stmt,isa 1
        LDRSH     A1, [SP, #0]          ; [DPU_V7M3_PIPE] |930| 
        SUBS      A1, A1, #1            ; [DPU_V7M3_PIPE] |930| 
        STRH      A1, [SP, #0]          ; [DPU_V7M3_PIPE] |930| 
	.dwpsn	file "../ST7735.c",line 930,column 14,is_stmt,isa 1
        LDRSH     A1, [SP, #0]          ; [DPU_V7M3_PIPE] |930| 
        CMP       A1, #0                ; [DPU_V7M3_PIPE] |930| 
        BGT       ||$C$L34||            ; [DPU_V7M3_PIPE] |930| 
        ; BRANCHCC OCCURS {||$C$L34||}   ; [] |930| 
;* --------------------------------------------------------------------------*
||$C$L35||:    
	.dwpsn	file "../ST7735.c",line 929,column 17,is_stmt,isa 1
        LDRSH     A1, [SP, #2]          ; [DPU_V7M3_PIPE] |929| 
        SUBS      A1, A1, #1            ; [DPU_V7M3_PIPE] |929| 
        STRH      A1, [SP, #2]          ; [DPU_V7M3_PIPE] |929| 
	.dwpsn	file "../ST7735.c",line 929,column 12,is_stmt,isa 1
        LDRSH     A1, [SP, #2]          ; [DPU_V7M3_PIPE] |929| 
        CMP       A1, #0                ; [DPU_V7M3_PIPE] |929| 
        BGT       ||$C$L33||            ; [DPU_V7M3_PIPE] |929| 
        ; BRANCHCC OCCURS {||$C$L33||}   ; [] |929| 
;* --------------------------------------------------------------------------*
	.dwpsn	file "../ST7735.c",line 935,column 1,is_stmt,isa 1
;* --------------------------------------------------------------------------*
||$C$L36||:    
        STR       A1, [SP, #0]          ; [DPU_V7M3_PIPE] 
$C$DW$159	.dwtag  DW_TAG_TI_branch
	.dwattr $C$DW$159, DW_AT_low_pc(0x00)
	.dwattr $C$DW$159, DW_AT_TI_return

        POP       {A1, A2, A3, A4, V1, V2, V4, PC} ; [DPU_V7M3_PIPE] 
	.dwcfi	cfa_offset, 0
	.dwcfi	restore_reg, 7
	.dwcfi	restore_reg, 5
	.dwcfi	restore_reg, 4
	.dwcfi	restore_reg, 3
	.dwcfi	restore_reg, 2
	.dwcfi	restore_reg, 1
	.dwcfi	restore_reg, 0
        ; BRANCH OCCURS                  ; [] 
	.dwattr $C$DW$144, DW_AT_TI_end_file("../ST7735.c")
	.dwattr $C$DW$144, DW_AT_TI_end_line(0x3a7)
	.dwattr $C$DW$144, DW_AT_TI_end_column(0x01)
	.dwendentry
	.dwendtag $C$DW$144

	.sect	".text"
	.clink
	.thumbfunc ST7735_Color565
	.thumb
	.global	ST7735_Color565

$C$DW$160	.dwtag  DW_TAG_subprogram
	.dwattr $C$DW$160, DW_AT_name("ST7735_Color565")
	.dwattr $C$DW$160, DW_AT_low_pc(ST7735_Color565)
	.dwattr $C$DW$160, DW_AT_high_pc(0x00)
	.dwattr $C$DW$160, DW_AT_TI_symbol_name("ST7735_Color565")
	.dwattr $C$DW$160, DW_AT_external
	.dwattr $C$DW$160, DW_AT_type(*$C$DW$T$46)
	.dwattr $C$DW$160, DW_AT_TI_begin_file("../ST7735.c")
	.dwattr $C$DW$160, DW_AT_TI_begin_line(0x3b0)
	.dwattr $C$DW$160, DW_AT_TI_begin_column(0x0a)
	.dwattr $C$DW$160, DW_AT_decl_file("../ST7735.c")
	.dwattr $C$DW$160, DW_AT_decl_line(0x3b0)
	.dwattr $C$DW$160, DW_AT_decl_column(0x0a)
	.dwattr $C$DW$160, DW_AT_TI_max_frame_size(0x08)
	.dwpsn	file "../ST7735.c",line 944,column 59,is_stmt,address ST7735_Color565,isa 1

	.dwfde $C$DW$CIE, ST7735_Color565
$C$DW$161	.dwtag  DW_TAG_formal_parameter
	.dwattr $C$DW$161, DW_AT_name("r")
	.dwattr $C$DW$161, DW_AT_TI_symbol_name("r")
	.dwattr $C$DW$161, DW_AT_type(*$C$DW$T$10)
	.dwattr $C$DW$161, DW_AT_location[DW_OP_reg0]

$C$DW$162	.dwtag  DW_TAG_formal_parameter
	.dwattr $C$DW$162, DW_AT_name("g")
	.dwattr $C$DW$162, DW_AT_TI_symbol_name("g")
	.dwattr $C$DW$162, DW_AT_type(*$C$DW$T$10)
	.dwattr $C$DW$162, DW_AT_location[DW_OP_reg1]

$C$DW$163	.dwtag  DW_TAG_formal_parameter
	.dwattr $C$DW$163, DW_AT_name("b")
	.dwattr $C$DW$163, DW_AT_TI_symbol_name("b")
	.dwattr $C$DW$163, DW_AT_type(*$C$DW$T$10)
	.dwattr $C$DW$163, DW_AT_location[DW_OP_reg2]


;*****************************************************************************
;* FUNCTION NAME: ST7735_Color565                                            *
;*                                                                           *
;*   Regs Modified     : A1,A2,A3,SP,SR                                      *
;*   Regs Used         : A1,A2,A3,SP,LR,SR                                   *
;*   Local Frame Size  : 0 Args + 4 Auto + 0 Save = 4 byte                   *
;*****************************************************************************
ST7735_Color565:
;* --------------------------------------------------------------------------*
	.dwcfi	cfa_offset, 0
        SUB       SP, SP, #8            ; [DPU_V7M3_PIPE] 
	.dwcfi	cfa_offset, 8
$C$DW$164	.dwtag  DW_TAG_variable
	.dwattr $C$DW$164, DW_AT_name("r")
	.dwattr $C$DW$164, DW_AT_TI_symbol_name("r")
	.dwattr $C$DW$164, DW_AT_type(*$C$DW$T$27)
	.dwattr $C$DW$164, DW_AT_location[DW_OP_breg13 0]

$C$DW$165	.dwtag  DW_TAG_variable
	.dwattr $C$DW$165, DW_AT_name("g")
	.dwattr $C$DW$165, DW_AT_TI_symbol_name("g")
	.dwattr $C$DW$165, DW_AT_type(*$C$DW$T$27)
	.dwattr $C$DW$165, DW_AT_location[DW_OP_breg13 1]

$C$DW$166	.dwtag  DW_TAG_variable
	.dwattr $C$DW$166, DW_AT_name("b")
	.dwattr $C$DW$166, DW_AT_TI_symbol_name("b")
	.dwattr $C$DW$166, DW_AT_type(*$C$DW$T$27)
	.dwattr $C$DW$166, DW_AT_location[DW_OP_breg13 2]

;----------------------------------------------------------------------
; 944 | uint16_t ST7735_Color565(uint8_t r, uint8_t g, uint8_t b) {            
;----------------------------------------------------------------------
        STRB      A3, [SP, #2]          ; [DPU_V7M3_PIPE] |944| 
        STRB      A2, [SP, #1]          ; [DPU_V7M3_PIPE] |944| 
        STRB      A1, [SP, #0]          ; [DPU_V7M3_PIPE] |944| 
	.dwpsn	file "../ST7735.c",line 945,column 3,is_stmt,isa 1
;----------------------------------------------------------------------
; 945 | return ((b & 0xF8) << 8) | ((g & 0xFC) << 3) | (r >> 3);               
;----------------------------------------------------------------------
        LDRB      A1, [SP, #2]          ; [DPU_V7M3_PIPE] |945| 
        LDRB      A2, [SP, #1]          ; [DPU_V7M3_PIPE] |945| 
        LDRB      A3, [SP, #0]          ; [DPU_V7M3_PIPE] |945| 
        AND       A1, A1, #248          ; [DPU_V7M3_PIPE] |945| 
        AND       A2, A2, #252          ; [DPU_V7M3_PIPE] |945| 
        LSLS      A1, A1, #8            ; [DPU_V7M3_PIPE] |945| 
        ORR       A1, A1, A2, LSL #3    ; [DPU_V7M3_PIPE] |945| 
        ORR       A1, A1, A3, ASR #3    ; [DPU_V7M3_PIPE] |945| 
        UXTH      A1, A1                ; [DPU_V7M3_PIPE] |945| 
	.dwpsn	file "../ST7735.c",line 946,column 1,is_stmt,isa 1
        ADD       SP, SP, #8            ; [DPU_V7M3_PIPE] 
	.dwcfi	cfa_offset, 0
$C$DW$167	.dwtag  DW_TAG_TI_branch
	.dwattr $C$DW$167, DW_AT_low_pc(0x00)
	.dwattr $C$DW$167, DW_AT_TI_return

        BX        LR                    ; [DPU_V7M3_PIPE] 
        ; BRANCH OCCURS                  ; [] 
	.dwattr $C$DW$160, DW_AT_TI_end_file("../ST7735.c")
	.dwattr $C$DW$160, DW_AT_TI_end_line(0x3b2)
	.dwattr $C$DW$160, DW_AT_TI_end_column(0x01)
	.dwendentry
	.dwendtag $C$DW$160

;******************************************************************************
;* CONSTANT TABLE                                                             *
;******************************************************************************
	.sect	".text"
	.align	4
||$C$CON30||:	.bits	_width,32
	.align	4
||$C$CON31||:	.bits	_height,32
	.sect	".text"
	.clink
	.thumbfunc ST7735_SwapColor
	.thumb
	.global	ST7735_SwapColor

$C$DW$168	.dwtag  DW_TAG_subprogram
	.dwattr $C$DW$168, DW_AT_name("ST7735_SwapColor")
	.dwattr $C$DW$168, DW_AT_low_pc(ST7735_SwapColor)
	.dwattr $C$DW$168, DW_AT_high_pc(0x00)
	.dwattr $C$DW$168, DW_AT_TI_symbol_name("ST7735_SwapColor")
	.dwattr $C$DW$168, DW_AT_external
	.dwattr $C$DW$168, DW_AT_type(*$C$DW$T$46)
	.dwattr $C$DW$168, DW_AT_TI_begin_file("../ST7735.c")
	.dwattr $C$DW$168, DW_AT_TI_begin_line(0x3ba)
	.dwattr $C$DW$168, DW_AT_TI_begin_column(0x0a)
	.dwattr $C$DW$168, DW_AT_decl_file("../ST7735.c")
	.dwattr $C$DW$168, DW_AT_decl_line(0x3ba)
	.dwattr $C$DW$168, DW_AT_decl_column(0x0a)
	.dwattr $C$DW$168, DW_AT_TI_max_frame_size(0x08)
	.dwpsn	file "../ST7735.c",line 954,column 39,is_stmt,address ST7735_SwapColor,isa 1

	.dwfde $C$DW$CIE, ST7735_SwapColor
$C$DW$169	.dwtag  DW_TAG_formal_parameter
	.dwattr $C$DW$169, DW_AT_name("x")
	.dwattr $C$DW$169, DW_AT_TI_symbol_name("x")
	.dwattr $C$DW$169, DW_AT_type(*$C$DW$T$10)
	.dwattr $C$DW$169, DW_AT_location[DW_OP_reg0]


;*****************************************************************************
;* FUNCTION NAME: ST7735_SwapColor                                           *
;*                                                                           *
;*   Regs Modified     : A1,A2,A3,SP                                         *
;*   Regs Used         : A1,A2,A3,SP,LR                                      *
;*   Local Frame Size  : 0 Args + 4 Auto + 0 Save = 4 byte                   *
;*****************************************************************************
ST7735_SwapColor:
;* --------------------------------------------------------------------------*
	.dwcfi	cfa_offset, 0
        SUB       SP, SP, #8            ; [DPU_V7M3_PIPE] 
	.dwcfi	cfa_offset, 8
$C$DW$170	.dwtag  DW_TAG_variable
	.dwattr $C$DW$170, DW_AT_name("x")
	.dwattr $C$DW$170, DW_AT_TI_symbol_name("x")
	.dwattr $C$DW$170, DW_AT_type(*$C$DW$T$46)
	.dwattr $C$DW$170, DW_AT_location[DW_OP_breg13 0]

;----------------------------------------------------------------------
; 954 | uint16_t ST7735_SwapColor(uint16_t x) {                                
;----------------------------------------------------------------------
        STRH      A1, [SP, #0]          ; [DPU_V7M3_PIPE] |954| 
	.dwpsn	file "../ST7735.c",line 955,column 3,is_stmt,isa 1
;----------------------------------------------------------------------
; 955 | return (x << 11) | (x & 0x07E0) | (x >> 11);                           
;----------------------------------------------------------------------
        LDRH      A1, [SP, #0]          ; [DPU_V7M3_PIPE] |955| 
        LDRH      A3, [SP, #0]          ; [DPU_V7M3_PIPE] |955| 
        LDRH      A2, [SP, #0]          ; [DPU_V7M3_PIPE] |955| 
        AND       A1, A1, #2016         ; [DPU_V7M3_PIPE] |955| 
        ORR       A1, A1, A3, LSL #11   ; [DPU_V7M3_PIPE] |955| 
        ORR       A1, A1, A2, ASR #11   ; [DPU_V7M3_PIPE] |955| 
        UXTH      A1, A1                ; [DPU_V7M3_PIPE] |955| 
	.dwpsn	file "../ST7735.c",line 956,column 1,is_stmt,isa 1
        ADD       SP, SP, #8            ; [DPU_V7M3_PIPE] 
	.dwcfi	cfa_offset, 0
$C$DW$171	.dwtag  DW_TAG_TI_branch
	.dwattr $C$DW$171, DW_AT_low_pc(0x00)
	.dwattr $C$DW$171, DW_AT_TI_return

        BX        LR                    ; [DPU_V7M3_PIPE] 
        ; BRANCH OCCURS                  ; [] 
	.dwattr $C$DW$168, DW_AT_TI_end_file("../ST7735.c")
	.dwattr $C$DW$168, DW_AT_TI_end_line(0x3bc)
	.dwattr $C$DW$168, DW_AT_TI_end_column(0x01)
	.dwendentry
	.dwendtag $C$DW$168

	.sect	".text"
	.clink
	.thumbfunc ST7735_DrawBitmap
	.thumb
	.global	ST7735_DrawBitmap

$C$DW$172	.dwtag  DW_TAG_subprogram
	.dwattr $C$DW$172, DW_AT_name("ST7735_DrawBitmap")
	.dwattr $C$DW$172, DW_AT_low_pc(ST7735_DrawBitmap)
	.dwattr $C$DW$172, DW_AT_high_pc(0x00)
	.dwattr $C$DW$172, DW_AT_TI_symbol_name("ST7735_DrawBitmap")
	.dwattr $C$DW$172, DW_AT_external
	.dwattr $C$DW$172, DW_AT_TI_begin_file("../ST7735.c")
	.dwattr $C$DW$172, DW_AT_TI_begin_line(0x3d2)
	.dwattr $C$DW$172, DW_AT_TI_begin_column(0x06)
	.dwattr $C$DW$172, DW_AT_decl_file("../ST7735.c")
	.dwattr $C$DW$172, DW_AT_decl_line(0x3d2)
	.dwattr $C$DW$172, DW_AT_decl_column(0x06)
	.dwattr $C$DW$172, DW_AT_TI_max_frame_size(0x28)
	.dwpsn	file "../ST7735.c",line 978,column 90,is_stmt,address ST7735_DrawBitmap,isa 1

	.dwfde $C$DW$CIE, ST7735_DrawBitmap
$C$DW$173	.dwtag  DW_TAG_formal_parameter
	.dwattr $C$DW$173, DW_AT_name("x")
	.dwattr $C$DW$173, DW_AT_TI_symbol_name("x")
	.dwattr $C$DW$173, DW_AT_type(*$C$DW$T$10)
	.dwattr $C$DW$173, DW_AT_location[DW_OP_reg0]

$C$DW$174	.dwtag  DW_TAG_formal_parameter
	.dwattr $C$DW$174, DW_AT_name("y")
	.dwattr $C$DW$174, DW_AT_TI_symbol_name("y")
	.dwattr $C$DW$174, DW_AT_type(*$C$DW$T$10)
	.dwattr $C$DW$174, DW_AT_location[DW_OP_reg1]

$C$DW$175	.dwtag  DW_TAG_formal_parameter
	.dwattr $C$DW$175, DW_AT_name("image")
	.dwattr $C$DW$175, DW_AT_TI_symbol_name("image")
	.dwattr $C$DW$175, DW_AT_type(*$C$DW$T$58)
	.dwattr $C$DW$175, DW_AT_location[DW_OP_reg2]

$C$DW$176	.dwtag  DW_TAG_formal_parameter
	.dwattr $C$DW$176, DW_AT_name("w")
	.dwattr $C$DW$176, DW_AT_TI_symbol_name("w")
	.dwattr $C$DW$176, DW_AT_type(*$C$DW$T$10)
	.dwattr $C$DW$176, DW_AT_location[DW_OP_reg3]

$C$DW$177	.dwtag  DW_TAG_formal_parameter
	.dwattr $C$DW$177, DW_AT_name("h")
	.dwattr $C$DW$177, DW_AT_TI_symbol_name("h")
	.dwattr $C$DW$177, DW_AT_type(*$C$DW$T$10)
	.dwattr $C$DW$177, DW_AT_location[DW_OP_breg13 40]


;*****************************************************************************
;* FUNCTION NAME: ST7735_DrawBitmap                                          *
;*                                                                           *
;*   Regs Modified     : A1,A2,A3,A4,V1,V2,V4,SP,LR,SR,FPEXC,FPSCR           *
;*   Regs Used         : A1,A2,A3,A4,V1,V2,V4,SP,LR,SR,FPEXC,FPSCR           *
;*   Local Frame Size  : 0 Args + 20 Auto + 16 Save = 36 byte                *
;*****************************************************************************
ST7735_DrawBitmap:
;* --------------------------------------------------------------------------*
	.dwcfi	cfa_offset, 0
        PUSH      {V1, V2, V4, LR}      ; [DPU_V7M3_PIPE] 
	.dwcfi	cfa_offset, 16
	.dwcfi	save_reg_to_mem, 14, -4
	.dwcfi	save_reg_to_mem, 7, -8
	.dwcfi	save_reg_to_mem, 5, -12
	.dwcfi	save_reg_to_mem, 4, -16
        ADD       V4, SP, #16           ; [DPU_V7M3_PIPE] 
        SUB       SP, SP, #24           ; [DPU_V7M3_PIPE] 
	.dwcfi	cfa_offset, 40
$C$DW$178	.dwtag  DW_TAG_variable
	.dwattr $C$DW$178, DW_AT_name("image")
	.dwattr $C$DW$178, DW_AT_TI_symbol_name("image")
	.dwattr $C$DW$178, DW_AT_type(*$C$DW$T$58)
	.dwattr $C$DW$178, DW_AT_location[DW_OP_breg13 0]

$C$DW$179	.dwtag  DW_TAG_variable
	.dwattr $C$DW$179, DW_AT_name("i")
	.dwattr $C$DW$179, DW_AT_TI_symbol_name("i")
	.dwattr $C$DW$179, DW_AT_type(*$C$DW$T$10)
	.dwattr $C$DW$179, DW_AT_location[DW_OP_breg13 4]

$C$DW$180	.dwtag  DW_TAG_variable
	.dwattr $C$DW$180, DW_AT_name("x")
	.dwattr $C$DW$180, DW_AT_TI_symbol_name("x")
	.dwattr $C$DW$180, DW_AT_type(*$C$DW$T$50)
	.dwattr $C$DW$180, DW_AT_location[DW_OP_breg13 8]

$C$DW$181	.dwtag  DW_TAG_variable
	.dwattr $C$DW$181, DW_AT_name("y")
	.dwattr $C$DW$181, DW_AT_TI_symbol_name("y")
	.dwattr $C$DW$181, DW_AT_type(*$C$DW$T$50)
	.dwattr $C$DW$181, DW_AT_location[DW_OP_breg13 10]

$C$DW$182	.dwtag  DW_TAG_variable
	.dwattr $C$DW$182, DW_AT_name("w")
	.dwattr $C$DW$182, DW_AT_TI_symbol_name("w")
	.dwattr $C$DW$182, DW_AT_type(*$C$DW$T$50)
	.dwattr $C$DW$182, DW_AT_location[DW_OP_breg13 12]

$C$DW$183	.dwtag  DW_TAG_variable
	.dwattr $C$DW$183, DW_AT_name("skipC")
	.dwattr $C$DW$183, DW_AT_TI_symbol_name("skipC")
	.dwattr $C$DW$183, DW_AT_type(*$C$DW$T$50)
	.dwattr $C$DW$183, DW_AT_location[DW_OP_breg13 14]

$C$DW$184	.dwtag  DW_TAG_variable
	.dwattr $C$DW$184, DW_AT_name("originalWidth")
	.dwattr $C$DW$184, DW_AT_TI_symbol_name("originalWidth")
	.dwattr $C$DW$184, DW_AT_type(*$C$DW$T$50)
	.dwattr $C$DW$184, DW_AT_location[DW_OP_breg13 16]

;----------------------------------------------------------------------
; 978 | void ST7735_DrawBitmap(int16_t x, int16_t y, const uint16_t *image, int
;     | 16_t w, int16_t h){                                                    
;----------------------------------------------------------------------
        STRH      A4, [SP, #12]         ; [DPU_V7M3_PIPE] |978| 
        STR       A3, [SP, #0]          ; [DPU_V7M3_PIPE] |978| 
        STRH      A2, [SP, #10]         ; [DPU_V7M3_PIPE] |978| 
        STRH      A1, [SP, #8]          ; [DPU_V7M3_PIPE] |978| 
	.dwpsn	file "../ST7735.c",line 979,column 17,is_stmt,isa 1
;----------------------------------------------------------------------
; 979 | int16_t skipC = 0;                      // non-zero if columns need to
;     | be skipped due to clipping                                             
;----------------------------------------------------------------------
        MOVS      A1, #0                ; [DPU_V7M3_PIPE] |979| 
        STRH      A1, [SP, #14]         ; [DPU_V7M3_PIPE] |979| 
	.dwpsn	file "../ST7735.c",line 980,column 25,is_stmt,isa 1
;----------------------------------------------------------------------
; 980 | int16_t originalWidth = w;              // save this value; even if not
;     |  all columns fit on the screen, the image is still this width in ROM   
;----------------------------------------------------------------------
        LDRH      A1, [SP, #12]         ; [DPU_V7M3_PIPE] |980| 
        STRH      A1, [SP, #16]         ; [DPU_V7M3_PIPE] |980| 
	.dwpsn	file "../ST7735.c",line 981,column 9,is_stmt,isa 1
;----------------------------------------------------------------------
; 981 | int i = w*(h - 1);                                                     
;----------------------------------------------------------------------
        LDRSH     A1, [V4, #0]          ; [DPU_V7M3_PIPE] |981| 
        LDRSH     A2, [SP, #12]         ; [DPU_V7M3_PIPE] |981| 
        SUBS      A1, A1, #1            ; [DPU_V7M3_PIPE] |981| 
        MULS      A1, A1, A2            ; [DPU_V7M3_PIPE] |981| 
        STR       A1, [SP, #4]          ; [DPU_V7M3_PIPE] |981| 
	.dwpsn	file "../ST7735.c",line 983,column 3,is_stmt,isa 1
;----------------------------------------------------------------------
; 983 | if((x >= _width) || ((y - h + 1) >= _height) || ((x + w) <= 0) || (y <
;     | 0)){                                                                   
; 984 |   return;                             // image is totally off the scree
;     | n, do nothing                                                          
;----------------------------------------------------------------------
        LDR       A1, $C$CON32          ; [DPU_V7M3_PIPE] |983| 
        LDRSH     A2, [SP, #8]          ; [DPU_V7M3_PIPE] |983| 
        LDRSH     A1, [A1, #0]          ; [DPU_V7M3_PIPE] |983| 
        CMP       A1, A2                ; [DPU_V7M3_PIPE] |983| 
        BLE       ||$C$L47||            ; [DPU_V7M3_PIPE] |983| 
        ; BRANCHCC OCCURS {||$C$L47||}   ; [] |983| 
;* --------------------------------------------------------------------------*
        LDR       A2, $C$CON33          ; [DPU_V7M3_PIPE] |983| 
        LDRSH     A3, [V4, #0]          ; [DPU_V7M3_PIPE] |983| 
        LDRSH     A1, [SP, #10]         ; [DPU_V7M3_PIPE] |983| 
        LDRSH     A2, [A2, #0]          ; [DPU_V7M3_PIPE] |983| 
        SUBS      A1, A1, A3            ; [DPU_V7M3_PIPE] |983| 
        ADDS      A1, A1, #1            ; [DPU_V7M3_PIPE] |983| 
        CMP       A2, A1                ; [DPU_V7M3_PIPE] |983| 
        BLE       ||$C$L47||            ; [DPU_V7M3_PIPE] |983| 
        ; BRANCHCC OCCURS {||$C$L47||}   ; [] |983| 
;* --------------------------------------------------------------------------*
        LDRSH     A2, [SP, #12]         ; [DPU_V7M3_PIPE] |983| 
        LDRSH     A1, [SP, #8]          ; [DPU_V7M3_PIPE] |983| 
        ADDS      A1, A1, A2            ; [DPU_V7M3_PIPE] |983| 
        CMP       A1, #0                ; [DPU_V7M3_PIPE] |983| 
        BLE       ||$C$L47||            ; [DPU_V7M3_PIPE] |983| 
        ; BRANCHCC OCCURS {||$C$L47||}   ; [] |983| 
;* --------------------------------------------------------------------------*
        LDRSH     A1, [SP, #10]         ; [DPU_V7M3_PIPE] |983| 
        CMP       A1, #0                ; [DPU_V7M3_PIPE] |983| 
        BPL       ||$C$L37||            ; [DPU_V7M3_PIPE] |983| 
        ; BRANCHCC OCCURS {||$C$L37||}   ; [] |983| 
;* --------------------------------------------------------------------------*
        B         ||$C$L47||            ; [DPU_V7M3_PIPE] |983| 
        ; BRANCH OCCURS {||$C$L47||}     ; [] |983| 
;* --------------------------------------------------------------------------*
;* --------------------------------------------------------------------------*
||$C$L37||:    
	.dwpsn	file "../ST7735.c",line 986,column 3,is_stmt,isa 1
;----------------------------------------------------------------------
; 986 | if((w > _width) || (h > _height)){    // image is too wide for the scre
;     | en, do nothing                                                         
; 987 |   //***This isn't necessarily a fatal error, but it makes the          
; 988 |   //following logic much more complicated, since you can have          
; 989 |   //an image that exceeds multiple boundaries and needs to be          
; 990 |   //clipped on more than one side.                                     
; 991 |   return;                                                              
;----------------------------------------------------------------------
        LDR       A1, $C$CON32          ; [DPU_V7M3_PIPE] |986| 
        LDRSH     A2, [SP, #12]         ; [DPU_V7M3_PIPE] |986| 
        LDRSH     A1, [A1, #0]          ; [DPU_V7M3_PIPE] |986| 
        CMP       A1, A2                ; [DPU_V7M3_PIPE] |986| 
        BLT       ||$C$L47||            ; [DPU_V7M3_PIPE] |986| 
        ; BRANCHCC OCCURS {||$C$L47||}   ; [] |986| 
;* --------------------------------------------------------------------------*
        LDR       A1, $C$CON33          ; [DPU_V7M3_PIPE] |986| 
        LDRSH     A2, [V4, #0]          ; [DPU_V7M3_PIPE] |986| 
        LDRSH     A1, [A1, #0]          ; [DPU_V7M3_PIPE] |986| 
        CMP       A1, A2                ; [DPU_V7M3_PIPE] |986| 
        BGE       ||$C$L38||            ; [DPU_V7M3_PIPE] |986| 
        ; BRANCHCC OCCURS {||$C$L38||}   ; [] |986| 
;* --------------------------------------------------------------------------*
        B         ||$C$L47||            ; [DPU_V7M3_PIPE] |986| 
        ; BRANCH OCCURS {||$C$L47||}     ; [] |986| 
;* --------------------------------------------------------------------------*
;* --------------------------------------------------------------------------*
||$C$L38||:    
	.dwpsn	file "../ST7735.c",line 993,column 3,is_stmt,isa 1
;----------------------------------------------------------------------
; 993 | if((x + w - 1) >= _width){            // image exceeds right of screen 
;----------------------------------------------------------------------
        LDR       A2, $C$CON32          ; [DPU_V7M3_PIPE] |993| 
        LDRSH     A3, [SP, #12]         ; [DPU_V7M3_PIPE] |993| 
        LDRSH     A1, [SP, #8]          ; [DPU_V7M3_PIPE] |993| 
        LDRSH     A2, [A2, #0]          ; [DPU_V7M3_PIPE] |993| 
        ADDS      A1, A1, A3            ; [DPU_V7M3_PIPE] |993| 
        SUBS      A1, A1, #1            ; [DPU_V7M3_PIPE] |993| 
        CMP       A2, A1                ; [DPU_V7M3_PIPE] |993| 
        BGT       ||$C$L39||            ; [DPU_V7M3_PIPE] |993| 
        ; BRANCHCC OCCURS {||$C$L39||}   ; [] |993| 
;* --------------------------------------------------------------------------*
	.dwpsn	file "../ST7735.c",line 994,column 5,is_stmt,isa 1
;----------------------------------------------------------------------
; 994 | skipC = (x + w) - _width;           // skip cut off columns            
;----------------------------------------------------------------------
        LDR       A2, $C$CON32          ; [DPU_V7M3_PIPE] |994| 
        LDRSH     A3, [SP, #12]         ; [DPU_V7M3_PIPE] |994| 
        LDRSH     A1, [SP, #8]          ; [DPU_V7M3_PIPE] |994| 
        LDRSH     A2, [A2, #0]          ; [DPU_V7M3_PIPE] |994| 
        ADDS      A1, A1, A3            ; [DPU_V7M3_PIPE] |994| 
        SUBS      A1, A1, A2            ; [DPU_V7M3_PIPE] |994| 
        STRH      A1, [SP, #14]         ; [DPU_V7M3_PIPE] |994| 
	.dwpsn	file "../ST7735.c",line 995,column 5,is_stmt,isa 1
;----------------------------------------------------------------------
; 995 | w = _width - x;                                                        
;----------------------------------------------------------------------
        LDR       A1, $C$CON32          ; [DPU_V7M3_PIPE] |995| 
        LDRSH     A2, [SP, #8]          ; [DPU_V7M3_PIPE] |995| 
        LDRSH     A1, [A1, #0]          ; [DPU_V7M3_PIPE] |995| 
        SUBS      A1, A1, A2            ; [DPU_V7M3_PIPE] |995| 
        STRH      A1, [SP, #12]         ; [DPU_V7M3_PIPE] |995| 
;* --------------------------------------------------------------------------*
||$C$L39||:    
	.dwpsn	file "../ST7735.c",line 997,column 3,is_stmt,isa 1
;----------------------------------------------------------------------
; 997 | if((y - h + 1) < 0){                  // image exceeds top of screen   
;----------------------------------------------------------------------
        LDRSH     A2, [V4, #0]          ; [DPU_V7M3_PIPE] |997| 
        LDRSH     A1, [SP, #10]         ; [DPU_V7M3_PIPE] |997| 
        SUBS      A1, A1, A2            ; [DPU_V7M3_PIPE] |997| 
